
obj/net/ns:     file format elf32-i386


Disassembly of section .text:

00800020 <_start>:
// starts us running when we are initially loaded into a new environment.
.text
.globl _start
_start:
	// See if we were started with arguments on the stack
	cmpl $USTACKTOP, %esp
  800020:	81 fc 00 e0 bf ee    	cmp    $0xeebfe000,%esp
	jne args_exist
  800026:	75 04                	jne    80002c <args_exist>

	// If not, push dummy argc/argv arguments.
	// This happens when we are loaded by the kernel,
	// because the kernel does not know about passing arguments.
	pushl $0
  800028:	6a 00                	push   $0x0
	pushl $0
  80002a:	6a 00                	push   $0x0

0080002c <args_exist>:

args_exist:
	call libmain
  80002c:	e8 57 f1 00 00       	call   80f188 <libmain>
1:	jmp 1b
  800031:	eb fe                	jmp    800031 <args_exist+0x5>
	...

00800040 <put_buffer>:

	return va;
}

static void
put_buffer(void *va) {
  800040:	55                   	push   %ebp
  800041:	89 e5                	mov    %esp,%ebp
	int i = ((uint32_t)va - REQVA) / PGSIZE;
	buse[i] = 0;
  800043:	2d 00 b0 fe 0f       	sub    $0xffeb000,%eax
  800048:	c1 e8 0c             	shr    $0xc,%eax
  80004b:	c6 80 30 50 81 00 00 	movb   $0x0,0x815030(%eax)
}
  800052:	5d                   	pop    %ebp
  800053:	c3                   	ret    

00800054 <umain>:
	serve();
}

void
umain(int argc, char **argv)
{
  800054:	55                   	push   %ebp
  800055:	89 e5                	mov    %esp,%ebp
  800057:	53                   	push   %ebx
  800058:	83 ec 14             	sub    $0x14,%esp
	envid_t ns_envid = sys_getenvid();
  80005b:	e8 81 00 01 00       	call   8100e1 <sys_getenvid>
  800060:	89 c3                	mov    %eax,%ebx

	binaryname = "ns";
  800062:	c7 05 e8 42 81 00 e0 	movl   $0x810ee0,0x8142e8
  800069:	0e 81 00 

	// fork off the timer thread which will send us periodic messages
	timer_envid = fork();
  80006c:	e8 25 01 01 00       	call   810196 <fork>
  800071:	a3 24 50 81 00       	mov    %eax,0x815024
	if (timer_envid < 0)
  800076:	85 c0                	test   %eax,%eax
  800078:	79 1c                	jns    800096 <umain+0x42>
		panic("error forking");
  80007a:	c7 44 24 08 e3 0e 81 	movl   $0x810ee3,0x8(%esp)
  800081:	00 
  800082:	c7 44 24 04 44 01 00 	movl   $0x144,0x4(%esp)
  800089:	00 
  80008a:	c7 04 24 f1 0e 81 00 	movl   $0x810ef1,(%esp)
  800091:	e8 56 f1 00 00       	call   80f1ec <_panic>
	else if (timer_envid == 0) {
  800096:	85 c0                	test   %eax,%eax
  800098:	75 15                	jne    8000af <umain+0x5b>
		timer(ns_envid, TIMER_INTERVAL);
  80009a:	c7 44 24 04 fa 00 00 	movl   $0xfa,0x4(%esp)
  8000a1:	00 
  8000a2:	89 1c 24             	mov    %ebx,(%esp)
  8000a5:	e8 c6 06 00 00       	call   800770 <timer>
		return;
  8000aa:	e9 a1 00 00 00       	jmp    800150 <umain+0xfc>
	}

	// fork off the input thread which will poll the NIC driver for input
	// packets

	input_envid = fork();
  8000af:	e8 e2 00 01 00       	call   810196 <fork>
  8000b4:	a3 28 50 81 00       	mov    %eax,0x815028
	if (input_envid < 0)
  8000b9:	85 c0                	test   %eax,%eax
  8000bb:	79 1c                	jns    8000d9 <umain+0x85>
		panic("error forking");
  8000bd:	c7 44 24 08 e3 0e 81 	movl   $0x810ee3,0x8(%esp)
  8000c4:	00 
  8000c5:	c7 44 24 04 4f 01 00 	movl   $0x14f,0x4(%esp)
  8000cc:	00 
  8000cd:	c7 04 24 f1 0e 81 00 	movl   $0x810ef1,(%esp)
  8000d4:	e8 13 f1 00 00       	call   80f1ec <_panic>
	else if (input_envid == 0) {
  8000d9:	85 c0                	test   %eax,%eax
  8000db:	75 0a                	jne    8000e7 <umain+0x93>
		input(ns_envid);
  8000dd:	89 1c 24             	mov    %ebx,(%esp)
  8000e0:	e8 5b 07 00 00       	call   800840 <input>
		return;
  8000e5:	eb 69                	jmp    800150 <umain+0xfc>
	}

	// fork off the output thread that will send the packets to the NIC
	// driver
	output_envid = fork();
  8000e7:	e8 aa 00 01 00       	call   810196 <fork>
  8000ec:	a3 2c 50 81 00       	mov    %eax,0x81502c
	if (output_envid < 0)
  8000f1:	85 c0                	test   %eax,%eax
  8000f3:	79 1c                	jns    800111 <umain+0xbd>
		panic("error forking");
  8000f5:	c7 44 24 08 e3 0e 81 	movl   $0x810ee3,0x8(%esp)
  8000fc:	00 
  8000fd:	c7 44 24 04 59 01 00 	movl   $0x159,0x4(%esp)
  800104:	00 
  800105:	c7 04 24 f1 0e 81 00 	movl   $0x810ef1,(%esp)
  80010c:	e8 db f0 00 00       	call   80f1ec <_panic>
	else if (output_envid == 0) {
  800111:	85 c0                	test   %eax,%eax
  800113:	75 0d                	jne    800122 <umain+0xce>
		output(ns_envid);
  800115:	89 1c 24             	mov    %ebx,(%esp)
  800118:	e8 1b 08 00 00       	call   800938 <output>
		return;
  80011d:	8d 76 00             	lea    0x0(%esi),%esi
  800120:	eb 2e                	jmp    800150 <umain+0xfc>
	}

	// lwIP requires a user threading library; start the library and jump
	// into a thread to continue initialization.
	thread_init();
  800122:	e8 f9 ad 00 00       	call   80af20 <thread_init>
	thread_create(0, "main", tmain, 0);
  800127:	c7 44 24 0c 00 00 00 	movl   $0x0,0xc(%esp)
  80012e:	00 
  80012f:	c7 44 24 08 00 07 80 	movl   $0x800700,0x8(%esp)
  800136:	00 
  800137:	c7 44 24 04 fc 0e 81 	movl   $0x810efc,0x4(%esp)
  80013e:	00 
  80013f:	c7 04 24 00 00 00 00 	movl   $0x0,(%esp)
  800146:	e8 b3 af 00 00       	call   80b0fe <thread_create>
	thread_yield();
  80014b:	e8 6b ae 00 00       	call   80afbb <thread_yield>
	// never coming here!
}
  800150:	83 c4 14             	add    $0x14,%esp
  800153:	5b                   	pop    %ebx
  800154:	5d                   	pop    %ebp
  800155:	c3                   	ret    

00800156 <serve>:
	sys_page_unmap(0, (void*) args->req);
	free(args);
}

void
serve(void) {
  800156:	55                   	push   %ebp
  800157:	89 e5                	mov    %esp,%ebp
  800159:	57                   	push   %edi
  80015a:	56                   	push   %esi
  80015b:	53                   	push   %ebx
  80015c:	83 ec 3c             	sub    $0x3c,%esp
  80015f:	bb 00 00 00 00       	mov    $0x0,%ebx
get_buffer(void) {
	void *va;

	int i;
	for (i = 0; i < QUEUE_SIZE; i++)
		if (!buse[i]) break;
  800164:	be 30 50 81 00       	mov    $0x815030,%esi
  800169:	eb 08                	jmp    800173 <serve+0x1d>
	while (1) {
		// ipc_recv will block the entire process, so we flush
		// all pending work from other threads.  We limit the
		// number of yields in case there's a rogue thread.
		for (i = 0; thread_wakeups_pending() && i < 32; ++i)
			thread_yield();
  80016b:	e8 4b ae 00 00       	call   80afbb <thread_yield>

	while (1) {
		// ipc_recv will block the entire process, so we flush
		// all pending work from other threads.  We limit the
		// number of yields in case there's a rogue thread.
		for (i = 0; thread_wakeups_pending() && i < 32; ++i)
  800170:	83 c3 01             	add    $0x1,%ebx
  800173:	e8 f6 ad 00 00       	call   80af6e <thread_wakeups_pending>
  800178:	85 c0                	test   %eax,%eax
  80017a:	74 05                	je     800181 <serve+0x2b>
  80017c:	83 fb 1f             	cmp    $0x1f,%ebx
  80017f:	7e ea                	jle    80016b <serve+0x15>
			thread_yield();

		perm = 0;
  800181:	c7 45 e0 00 00 00 00 	movl   $0x0,-0x20(%ebp)
  800188:	b8 00 00 00 00       	mov    $0x0,%eax
get_buffer(void) {
	void *va;

	int i;
	for (i = 0; i < QUEUE_SIZE; i++)
		if (!buse[i]) break;
  80018d:	80 3c 06 00          	cmpb   $0x0,(%esi,%eax,1)
  800191:	74 0a                	je     80019d <serve+0x47>
static void *
get_buffer(void) {
	void *va;

	int i;
	for (i = 0; i < QUEUE_SIZE; i++)
  800193:	83 c0 01             	add    $0x1,%eax
  800196:	83 f8 14             	cmp    $0x14,%eax
  800199:	75 f2                	jne    80018d <serve+0x37>
  80019b:	eb 05                	jmp    8001a2 <serve+0x4c>
		if (!buse[i]) break;

	if (i == QUEUE_SIZE) {
  80019d:	83 f8 14             	cmp    $0x14,%eax
  8001a0:	75 1c                	jne    8001be <serve+0x68>
		panic("NS: buffer overflow");
  8001a2:	c7 44 24 08 01 0f 81 	movl   $0x810f01,0x8(%esp)
  8001a9:	00 
  8001aa:	c7 44 24 04 3f 00 00 	movl   $0x3f,0x4(%esp)
  8001b1:	00 
  8001b2:	c7 04 24 f1 0e 81 00 	movl   $0x810ef1,(%esp)
  8001b9:	e8 2e f0 00 00       	call   80f1ec <_panic>
		return 0;
	}

	va = (void *)(REQVA + i * PGSIZE);
  8001be:	8d 98 eb ff 00 00    	lea    0xffeb(%eax),%ebx
  8001c4:	c1 e3 0c             	shl    $0xc,%ebx
	buse[i] = 1;
  8001c7:	c6 04 06 01          	movb   $0x1,(%esi,%eax,1)
		for (i = 0; thread_wakeups_pending() && i < 32; ++i)
			thread_yield();

		perm = 0;
		va = get_buffer();
		reqno = ipc_recv((int32_t *) &whom, (void *) va, &perm);
  8001cb:	8d 45 e0             	lea    -0x20(%ebp),%eax
  8001ce:	89 44 24 08          	mov    %eax,0x8(%esp)
  8001d2:	89 5c 24 04          	mov    %ebx,0x4(%esp)
  8001d6:	8d 45 e4             	lea    -0x1c(%ebp),%eax
  8001d9:	89 04 24             	mov    %eax,(%esp)
  8001dc:	e8 ed 03 01 00       	call   8105ce <ipc_recv>
  8001e1:	89 c7                	mov    %eax,%edi
		if (debug) {
			cprintf("ns req %d from %08x\n", reqno, whom);
		}

		// first take care of requests that do not contain an argument page
		if (reqno == NSREQ_TIMER) {
  8001e3:	83 f8 0c             	cmp    $0xc,%eax
  8001e6:	75 6a                	jne    800252 <serve+0xfc>
			process_timer(whom);
  8001e8:	8b 7d e4             	mov    -0x1c(%ebp),%edi

static void
process_timer(envid_t envid) {
	uint32_t start, now, to;

	if (envid != timer_envid) {
  8001eb:	3b 3d 24 50 81 00    	cmp    0x815024,%edi
  8001f1:	74 12                	je     800205 <serve+0xaf>
		cprintf("NS: received timer interrupt from envid %x not timer env\n", envid);
  8001f3:	89 7c 24 04          	mov    %edi,0x4(%esp)
  8001f7:	c7 04 24 90 0f 81 00 	movl   $0x810f90,(%esp)
  8001fe:	e8 a2 f0 00 00       	call   80f2a5 <cprintf>
  800203:	eb 3c                	jmp    800241 <serve+0xeb>
		return;
	}

	start = sys_time_msec();
  800205:	e8 e9 fa 00 00       	call   80fcf3 <sys_time_msec>
  80020a:	89 45 d4             	mov    %eax,-0x2c(%ebp)
	thread_yield();
  80020d:	8d 76 00             	lea    0x0(%esi),%esi
  800210:	e8 a6 ad 00 00       	call   80afbb <thread_yield>
	now = sys_time_msec();
  800215:	e8 d9 fa 00 00       	call   80fcf3 <sys_time_msec>

	to = TIMER_INTERVAL - (now - start);
	ipc_send(envid, to, 0, 0);
  80021a:	c7 44 24 0c 00 00 00 	movl   $0x0,0xc(%esp)
  800221:	00 
  800222:	c7 44 24 08 00 00 00 	movl   $0x0,0x8(%esp)
  800229:	00 
  80022a:	8b 55 d4             	mov    -0x2c(%ebp),%edx
  80022d:	81 c2 fa 00 00 00    	add    $0xfa,%edx
  800233:	29 c2                	sub    %eax,%edx
  800235:	89 54 24 04          	mov    %edx,0x4(%esp)
  800239:	89 3c 24             	mov    %edi,(%esp)
  80023c:	e8 21 03 01 00       	call   810562 <ipc_send>
		}

		// first take care of requests that do not contain an argument page
		if (reqno == NSREQ_TIMER) {
			process_timer(whom);
			put_buffer(va);
  800241:	89 d8                	mov    %ebx,%eax
  800243:	e8 f8 fd ff ff       	call   800040 <put_buffer>
  800248:	bb 00 00 00 00       	mov    $0x0,%ebx
			continue;
  80024d:	e9 21 ff ff ff       	jmp    800173 <serve+0x1d>
		}

		// All remaining requests must contain an argument page
		if (!(perm & PTE_P)) {
  800252:	f6 45 e0 01          	testb  $0x1,-0x20(%ebp)
  800256:	75 1d                	jne    800275 <serve+0x11f>
			cprintf("Invalid request from %08x: no argument page\n", whom);
  800258:	8b 45 e4             	mov    -0x1c(%ebp),%eax
  80025b:	89 44 24 04          	mov    %eax,0x4(%esp)
  80025f:	c7 04 24 cc 0f 81 00 	movl   $0x810fcc,(%esp)
  800266:	e8 3a f0 00 00       	call   80f2a5 <cprintf>
  80026b:	bb 00 00 00 00       	mov    $0x0,%ebx
			continue; // just leave it hanging...
  800270:	e9 fe fe ff ff       	jmp    800173 <serve+0x1d>
		}

		// Since some lwIP socket calls will block, create a thread and
		// process the rest of the request in the thread.
		struct st_args *args = malloc(sizeof(struct st_args));
  800275:	c7 04 24 0c 00 00 00 	movl   $0xc,(%esp)
  80027c:	e8 6e 07 01 00       	call   8109ef <malloc>
		if (!args)
  800281:	85 c0                	test   %eax,%eax
  800283:	75 1c                	jne    8002a1 <serve+0x14b>
			panic("could not allocate thread args structure");
  800285:	c7 44 24 08 fc 0f 81 	movl   $0x810ffc,0x8(%esp)
  80028c:	00 
  80028d:	c7 44 24 04 27 01 00 	movl   $0x127,0x4(%esp)
  800294:	00 
  800295:	c7 04 24 f1 0e 81 00 	movl   $0x810ef1,(%esp)
  80029c:	e8 4b ef 00 00       	call   80f1ec <_panic>

		args->reqno = reqno;
  8002a1:	89 38                	mov    %edi,(%eax)
		args->whom = whom;
  8002a3:	8b 55 e4             	mov    -0x1c(%ebp),%edx
  8002a6:	89 50 04             	mov    %edx,0x4(%eax)
		args->req = va;
  8002a9:	89 58 08             	mov    %ebx,0x8(%eax)

		thread_create(0, "serve_thread", serve_thread, (uint32_t)args);
  8002ac:	89 44 24 0c          	mov    %eax,0xc(%esp)
  8002b0:	c7 44 24 08 db 02 80 	movl   $0x8002db,0x8(%esp)
  8002b7:	00 
  8002b8:	c7 44 24 04 15 0f 81 	movl   $0x810f15,0x4(%esp)
  8002bf:	00 
  8002c0:	c7 04 24 00 00 00 00 	movl   $0x0,(%esp)
  8002c7:	e8 32 ae 00 00       	call   80b0fe <thread_create>
		thread_yield(); // let the thread created run
  8002cc:	e8 ea ac 00 00       	call   80afbb <thread_yield>
  8002d1:	bb 00 00 00 00       	mov    $0x0,%ebx
  8002d6:	e9 98 fe ff ff       	jmp    800173 <serve+0x1d>

008002db <serve_thread>:
	uint32_t whom;
	union Nsipc *req;
};

static void
serve_thread(uint32_t a) {
  8002db:	55                   	push   %ebp
  8002dc:	89 e5                	mov    %esp,%ebp
  8002de:	81 ec 98 00 00 00    	sub    $0x98,%esp
  8002e4:	89 5d f4             	mov    %ebx,-0xc(%ebp)
  8002e7:	89 75 f8             	mov    %esi,-0x8(%ebp)
  8002ea:	89 7d fc             	mov    %edi,-0x4(%ebp)
	struct st_args *args = (struct st_args *)a;
  8002ed:	8b 5d 08             	mov    0x8(%ebp),%ebx
	union Nsipc *req = args->req;
  8002f0:	8b 73 08             	mov    0x8(%ebx),%esi
	int r;

	switch (args->reqno) {
  8002f3:	83 3b 0a             	cmpl   $0xa,(%ebx)
  8002f6:	0f 87 3a 01 00 00    	ja     800436 <serve_thread+0x15b>
  8002fc:	8b 03                	mov    (%ebx),%eax
  8002fe:	ff 24 85 c8 10 81 00 	jmp    *0x8110c8(,%eax,4)
	case NSREQ_ACCEPT:
	{
		struct Nsret_accept ret;
		ret.ret_addrlen = req->accept.req_addrlen;
  800305:	8b 46 04             	mov    0x4(%esi),%eax
  800308:	89 45 94             	mov    %eax,-0x6c(%ebp)
		r = lwip_accept(req->accept.req_s, &ret.ret_addr,
  80030b:	8d 45 94             	lea    -0x6c(%ebp),%eax
  80030e:	89 44 24 08          	mov    %eax,0x8(%esp)
  800312:	8d 45 84             	lea    -0x7c(%ebp),%eax
  800315:	89 44 24 04          	mov    %eax,0x4(%esp)
  800319:	8b 06                	mov    (%esi),%eax
  80031b:	89 04 24             	mov    %eax,(%esp)
  80031e:	e8 08 1e 00 00       	call   80212b <lwip_accept>
  800323:	89 c7                	mov    %eax,%edi
				&ret.ret_addrlen);
		memmove(req, &ret, sizeof ret);
  800325:	c7 44 24 08 14 00 00 	movl   $0x14,0x8(%esp)
  80032c:	00 
  80032d:	8d 45 84             	lea    -0x7c(%ebp),%eax
  800330:	89 44 24 04          	mov    %eax,0x4(%esp)
  800334:	89 34 24             	mov    %esi,(%esp)
  800337:	e8 73 f7 00 00       	call   80faaf <memmove>
		break;
  80033c:	e9 13 01 00 00       	jmp    800454 <serve_thread+0x179>
	}
	case NSREQ_BIND:
		r = lwip_bind(req->bind.req_s, &req->bind.req_name,
  800341:	8b 46 14             	mov    0x14(%esi),%eax
  800344:	89 44 24 08          	mov    %eax,0x8(%esp)
  800348:	8d 46 04             	lea    0x4(%esi),%eax
  80034b:	89 44 24 04          	mov    %eax,0x4(%esp)
  80034f:	8b 06                	mov    (%esi),%eax
  800351:	89 04 24             	mov    %eax,(%esp)
  800354:	e8 19 1d 00 00       	call   802072 <lwip_bind>
  800359:	89 c7                	mov    %eax,%edi
			      req->bind.req_namelen);
		break;
  80035b:	e9 f4 00 00 00       	jmp    800454 <serve_thread+0x179>
	case NSREQ_SHUTDOWN:
		r = lwip_shutdown(req->shutdown.req_s, req->shutdown.req_how);
  800360:	8b 46 04             	mov    0x4(%esi),%eax
  800363:	89 44 24 04          	mov    %eax,0x4(%esp)
  800367:	8b 06                	mov    (%esi),%eax
  800369:	89 04 24             	mov    %eax,(%esp)
  80036c:	e8 a7 1b 00 00       	call   801f18 <lwip_shutdown>
  800371:	89 c7                	mov    %eax,%edi
		break;
  800373:	e9 dc 00 00 00       	jmp    800454 <serve_thread+0x179>
	case NSREQ_CLOSE:
		r = lwip_close(req->close.req_s);
  800378:	8b 06                	mov    (%esi),%eax
  80037a:	89 04 24             	mov    %eax,(%esp)
  80037d:	e8 1a 1b 00 00       	call   801e9c <lwip_close>
  800382:	89 c7                	mov    %eax,%edi
		break;
  800384:	e9 cb 00 00 00       	jmp    800454 <serve_thread+0x179>
	case NSREQ_CONNECT:
		r = lwip_connect(req->connect.req_s, &req->connect.req_name,
  800389:	8b 46 14             	mov    0x14(%esi),%eax
  80038c:	89 44 24 08          	mov    %eax,0x8(%esp)
  800390:	8d 46 04             	lea    0x4(%esi),%eax
  800393:	89 44 24 04          	mov    %eax,0x4(%esp)
  800397:	8b 06                	mov    (%esi),%eax
  800399:	89 04 24             	mov    %eax,(%esp)
  80039c:	e8 18 1c 00 00       	call   801fb9 <lwip_connect>
  8003a1:	89 c7                	mov    %eax,%edi
				 req->connect.req_namelen);
		break;
  8003a3:	e9 ac 00 00 00       	jmp    800454 <serve_thread+0x179>
	case NSREQ_LISTEN:
		r = lwip_listen(req->listen.req_s, req->listen.req_backlog);
  8003a8:	8b 46 04             	mov    0x4(%esi),%eax
  8003ab:	89 44 24 04          	mov    %eax,0x4(%esp)
  8003af:	8b 06                	mov    (%esi),%eax
  8003b1:	89 04 24             	mov    %eax,(%esp)
  8003b4:	e8 72 1b 00 00       	call   801f2b <lwip_listen>
  8003b9:	89 c7                	mov    %eax,%edi
		break;
  8003bb:	e9 94 00 00 00       	jmp    800454 <serve_thread+0x179>
	case NSREQ_RECV:
		// Note that we read the request fields before we
		// overwrite it with the response data.
		r = lwip_recv(req->recv.req_s, req->recvRet.ret_buf,
  8003c0:	8b 46 08             	mov    0x8(%esi),%eax
  8003c3:	89 44 24 0c          	mov    %eax,0xc(%esp)
  8003c7:	8b 46 04             	mov    0x4(%esi),%eax
  8003ca:	89 44 24 08          	mov    %eax,0x8(%esp)
  8003ce:	89 74 24 04          	mov    %esi,0x4(%esp)
  8003d2:	8b 06                	mov    (%esi),%eax
  8003d4:	89 04 24             	mov    %eax,(%esp)
  8003d7:	e8 4f 1a 00 00       	call   801e2b <lwip_recv>
  8003dc:	89 c7                	mov    %eax,%edi
			      req->recv.req_len, req->recv.req_flags);
		break;
  8003de:	eb 74                	jmp    800454 <serve_thread+0x179>
	case NSREQ_SEND:
		r = lwip_send(req->send.req_s, &req->send.req_buf,
  8003e0:	8b 46 08             	mov    0x8(%esi),%eax
  8003e3:	89 44 24 0c          	mov    %eax,0xc(%esp)
  8003e7:	8b 46 04             	mov    0x4(%esi),%eax
  8003ea:	89 44 24 08          	mov    %eax,0x8(%esp)
  8003ee:	8d 46 0c             	lea    0xc(%esi),%eax
  8003f1:	89 44 24 04          	mov    %eax,0x4(%esp)
  8003f5:	8b 06                	mov    (%esi),%eax
  8003f7:	89 04 24             	mov    %eax,(%esp)
  8003fa:	e8 b1 15 00 00       	call   8019b0 <lwip_send>
  8003ff:	89 c7                	mov    %eax,%edi
			      req->send.req_size, req->send.req_flags);
		break;
  800401:	eb 51                	jmp    800454 <serve_thread+0x179>
	case NSREQ_SOCKET:
		r = lwip_socket(req->socket.req_domain, req->socket.req_type,
  800403:	8b 46 08             	mov    0x8(%esi),%eax
  800406:	89 44 24 08          	mov    %eax,0x8(%esp)
  80040a:	8b 46 04             	mov    0x4(%esi),%eax
  80040d:	89 44 24 04          	mov    %eax,0x4(%esp)
  800411:	8b 06                	mov    (%esi),%eax
  800413:	89 04 24             	mov    %eax,(%esp)
  800416:	e8 ae 14 00 00       	call   8018c9 <lwip_socket>
  80041b:	89 c7                	mov    %eax,%edi
				req->socket.req_protocol);
		break;
  80041d:	eb 35                	jmp    800454 <serve_thread+0x179>
	case NSREQ_INPUT:
		jif_input(&nif, (void *)&req->pkt);
  80041f:	89 74 24 04          	mov    %esi,0x4(%esp)
  800423:	c7 04 24 00 b2 b3 00 	movl   $0xb3b200,(%esp)
  80042a:	e8 f3 b0 00 00       	call   80b522 <jif_input>
  80042f:	bf 00 00 00 00       	mov    $0x0,%edi
		r = 0;
		break;
  800434:	eb 4c                	jmp    800482 <serve_thread+0x1a7>
	default:
		cprintf("Invalid request code %d from %08x\n", args->whom, args->req);
  800436:	89 74 24 08          	mov    %esi,0x8(%esp)
  80043a:	8b 43 04             	mov    0x4(%ebx),%eax
  80043d:	89 44 24 04          	mov    %eax,0x4(%esp)
  800441:	c7 04 24 28 10 81 00 	movl   $0x811028,(%esp)
  800448:	e8 58 ee 00 00       	call   80f2a5 <cprintf>
  80044d:	bf fd ff ff ff       	mov    $0xfffffffd,%edi
  800452:	eb 2e                	jmp    800482 <serve_thread+0x1a7>
		r = -E_INVAL;
		break;
	}

	if (r == -1) {
  800454:	83 ff ff             	cmp    $0xffffffff,%edi
  800457:	75 29                	jne    800482 <serve_thread+0x1a7>
		char buf[100];
		snprintf(buf, sizeof buf, "ns req type %d", args->reqno);
  800459:	8b 03                	mov    (%ebx),%eax
  80045b:	89 44 24 0c          	mov    %eax,0xc(%esp)
  80045f:	c7 44 24 08 22 0f 81 	movl   $0x810f22,0x8(%esp)
  800466:	00 
  800467:	c7 44 24 04 64 00 00 	movl   $0x64,0x4(%esp)
  80046e:	00 
  80046f:	8d 75 84             	lea    -0x7c(%ebp),%esi
  800472:	89 34 24             	mov    %esi,(%esp)
  800475:	e8 02 f4 00 00       	call   80f87c <snprintf>
		perror(buf);
  80047a:	89 34 24             	mov    %esi,(%esp)
  80047d:	e8 85 ae 00 00       	call   80b307 <perror>
	}

	if (args->reqno != NSREQ_INPUT)
  800482:	83 3b 0a             	cmpl   $0xa,(%ebx)
  800485:	74 1f                	je     8004a6 <serve_thread+0x1cb>
		ipc_send(args->whom, r, 0, 0);
  800487:	c7 44 24 0c 00 00 00 	movl   $0x0,0xc(%esp)
  80048e:	00 
  80048f:	c7 44 24 08 00 00 00 	movl   $0x0,0x8(%esp)
  800496:	00 
  800497:	89 7c 24 04          	mov    %edi,0x4(%esp)
  80049b:	8b 43 04             	mov    0x4(%ebx),%eax
  80049e:	89 04 24             	mov    %eax,(%esp)
  8004a1:	e8 bc 00 01 00       	call   810562 <ipc_send>

	put_buffer(args->req);
  8004a6:	8b 43 08             	mov    0x8(%ebx),%eax
  8004a9:	e8 92 fb ff ff       	call   800040 <put_buffer>
	sys_page_unmap(0, (void*) args->req);
  8004ae:	8b 43 08             	mov    0x8(%ebx),%eax
  8004b1:	89 44 24 04          	mov    %eax,0x4(%esp)
  8004b5:	c7 04 24 00 00 00 00 	movl   $0x0,(%esp)
  8004bc:	e8 d1 fa 00 00       	call   80ff92 <sys_page_unmap>
	free(args);
  8004c1:	89 1c 24             	mov    %ebx,(%esp)
  8004c4:	e8 53 04 01 00       	call   81091c <free>
}
  8004c9:	8b 5d f4             	mov    -0xc(%ebp),%ebx
  8004cc:	8b 75 f8             	mov    -0x8(%ebp),%esi
  8004cf:	8b 7d fc             	mov    -0x4(%ebp),%edi
  8004d2:	89 ec                	mov    %ebp,%esp
  8004d4:	5d                   	pop    %ebp
  8004d5:	c3                   	ret    

008004d6 <net_timer>:
	netif_set_up(nif);
}

static void __attribute__((noreturn))
net_timer(uint32_t arg)
{
  8004d6:	55                   	push   %ebp
  8004d7:	89 e5                	mov    %esp,%ebp
  8004d9:	56                   	push   %esi
  8004da:	53                   	push   %ebx
  8004db:	83 ec 10             	sub    $0x10,%esp
	struct timer_thread *t = (struct timer_thread *) arg;
  8004de:	8b 5d 08             	mov    0x8(%ebp),%ebx

	for (;;) {
		uint32_t cur = sys_time_msec();
  8004e1:	e8 0d f8 00 00       	call   80fcf3 <sys_time_msec>
  8004e6:	89 c6                	mov    %eax,%esi

		lwip_core_lock();
  8004e8:	e8 72 a1 00 00       	call   80a65f <lwip_core_lock>
		t->func();
  8004ed:	ff 53 04             	call   *0x4(%ebx)
		lwip_core_unlock();
  8004f0:	e8 6f a1 00 00       	call   80a664 <lwip_core_unlock>

		thread_wait(0, 0, cur + t->msec);
  8004f5:	03 33                	add    (%ebx),%esi
  8004f7:	89 74 24 08          	mov    %esi,0x8(%esp)
  8004fb:	c7 44 24 04 00 00 00 	movl   $0x0,0x4(%esp)
  800502:	00 
  800503:	c7 04 24 00 00 00 00 	movl   $0x0,(%esp)
  80050a:	e8 37 ad 00 00       	call   80b246 <thread_wait>
  80050f:	eb d0                	jmp    8004e1 <net_timer+0xb>

00800511 <start_timer>:
	}
}

static void
start_timer(struct timer_thread *t, void (*func)(void), const char *name, int msec)
{
  800511:	55                   	push   %ebp
  800512:	89 e5                	mov    %esp,%ebp
  800514:	53                   	push   %ebx
  800515:	83 ec 14             	sub    $0x14,%esp
	t->msec = msec;
  800518:	8b 5d 08             	mov    0x8(%ebp),%ebx
  80051b:	89 18                	mov    %ebx,(%eax)
	t->func = func;
  80051d:	89 50 04             	mov    %edx,0x4(%eax)
	t->name = name;
  800520:	89 48 08             	mov    %ecx,0x8(%eax)
	int r = thread_create(0, name, &net_timer, (uint32_t)t);
  800523:	89 44 24 0c          	mov    %eax,0xc(%esp)
  800527:	c7 44 24 08 d6 04 80 	movl   $0x8004d6,0x8(%esp)
  80052e:	00 
  80052f:	89 4c 24 04          	mov    %ecx,0x4(%esp)
  800533:	c7 04 24 00 00 00 00 	movl   $0x0,(%esp)
  80053a:	e8 bf ab 00 00       	call   80b0fe <thread_create>
	if (r < 0)
  80053f:	85 c0                	test   %eax,%eax
  800541:	79 28                	jns    80056b <start_timer+0x5a>
		panic("cannot create timer thread: %s", e2s(r));
  800543:	89 04 24             	mov    %eax,(%esp)
  800546:	e8 ad ad 00 00       	call   80b2f8 <e2s>
  80054b:	89 44 24 0c          	mov    %eax,0xc(%esp)
  80054f:	c7 44 24 08 4c 10 81 	movl   $0x81104c,0x8(%esp)
  800556:	00 
  800557:	c7 44 24 04 7a 00 00 	movl   $0x7a,0x4(%esp)
  80055e:	00 
  80055f:	c7 04 24 f1 0e 81 00 	movl   $0x810ef1,(%esp)
  800566:	e8 81 ec 00 00       	call   80f1ec <_panic>
}
  80056b:	83 c4 14             	add    $0x14,%esp
  80056e:	5b                   	pop    %ebx
  80056f:	5d                   	pop    %ebp
  800570:	c3                   	ret    

00800571 <serve_init>:
	thread_wakeup(done);
}

void
serve_init(uint32_t ipaddr, uint32_t netmask, uint32_t gw)
{
  800571:	55                   	push   %ebp
  800572:	89 e5                	mov    %esp,%ebp
  800574:	56                   	push   %esi
  800575:	53                   	push   %ebx
  800576:	83 ec 30             	sub    $0x30,%esp
  800579:	8b 75 08             	mov    0x8(%ebp),%esi
	int r;
	lwip_core_lock();
  80057c:	e8 de a0 00 00       	call   80a65f <lwip_core_lock>

	uint32_t done = 0;
  800581:	c7 45 f4 00 00 00 00 	movl   $0x0,-0xc(%ebp)
	tcpip_init(&tcpip_init_done, &done);
  800588:	8d 5d f4             	lea    -0xc(%ebp),%ebx
  80058b:	89 5c 24 04          	mov    %ebx,0x4(%esp)
  80058f:	c7 04 24 53 07 80 00 	movl   $0x800753,(%esp)
  800596:	e8 88 1d 00 00       	call   802323 <tcpip_init>
	lwip_core_unlock();
  80059b:	e8 c4 a0 00 00       	call   80a664 <lwip_core_unlock>
	thread_wait(&done, 0, (uint32_t)~0);
  8005a0:	c7 44 24 08 ff ff ff 	movl   $0xffffffff,0x8(%esp)
  8005a7:	ff 
  8005a8:	c7 44 24 04 00 00 00 	movl   $0x0,0x4(%esp)
  8005af:	00 
  8005b0:	89 1c 24             	mov    %ebx,(%esp)
  8005b3:	e8 8e ac 00 00       	call   80b246 <thread_wait>
	lwip_core_lock();
  8005b8:	e8 a2 a0 00 00       	call   80a65f <lwip_core_lock>
static void
lwip_init(struct netif *nif, void *if_state,
	  uint32_t init_addr, uint32_t init_mask, uint32_t init_gw)
{
	struct ip_addr ipaddr, netmask, gateway;
	ipaddr.addr  = init_addr;
  8005bd:	89 75 f0             	mov    %esi,-0x10(%ebp)
	netmask.addr = init_mask;
  8005c0:	8b 45 0c             	mov    0xc(%ebp),%eax
  8005c3:	89 45 ec             	mov    %eax,-0x14(%ebp)
	gateway.addr = init_gw;
  8005c6:	8b 45 10             	mov    0x10(%ebp),%eax
  8005c9:	89 45 e8             	mov    %eax,-0x18(%ebp)

	if (0 == netif_add(nif, &ipaddr, &netmask, &gateway,
  8005cc:	c7 44 24 18 0a 6e 80 	movl   $0x806e0a,0x18(%esp)
  8005d3:	00 
  8005d4:	c7 44 24 14 40 b3 80 	movl   $0x80b340,0x14(%esp)
  8005db:	00 
  8005dc:	c7 44 24 10 2c 50 81 	movl   $0x81502c,0x10(%esp)
  8005e3:	00 
  8005e4:	8d 45 e8             	lea    -0x18(%ebp),%eax
  8005e7:	89 44 24 0c          	mov    %eax,0xc(%esp)
  8005eb:	8d 45 ec             	lea    -0x14(%ebp),%eax
  8005ee:	89 44 24 08          	mov    %eax,0x8(%esp)
  8005f2:	8d 45 f0             	lea    -0x10(%ebp),%eax
  8005f5:	89 44 24 04          	mov    %eax,0x4(%esp)
  8005f9:	c7 04 24 00 b2 b3 00 	movl   $0xb3b200,(%esp)
  800600:	e8 48 47 00 00       	call   804d4d <netif_add>
  800605:	85 c0                	test   %eax,%eax
  800607:	75 1c                	jne    800625 <serve_init+0xb4>
			   if_state,
			   jif_init,
			   ip_input))
		panic("lwip_init: error in netif_add\n");
  800609:	c7 44 24 08 6c 10 81 	movl   $0x81106c,0x8(%esp)
  800610:	00 
  800611:	c7 44 24 04 5c 00 00 	movl   $0x5c,0x4(%esp)
  800618:	00 
  800619:	c7 04 24 f1 0e 81 00 	movl   $0x810ef1,(%esp)
  800620:	e8 c7 eb 00 00       	call   80f1ec <_panic>

	netif_set_default(nif);
  800625:	c7 04 24 00 b2 b3 00 	movl   $0xb3b200,(%esp)
  80062c:	e8 ae 45 00 00       	call   804bdf <netif_set_default>
	netif_set_up(nif);
  800631:	c7 04 24 00 b2 b3 00 	movl   $0xb3b200,(%esp)
  800638:	e8 21 46 00 00       	call   804c5e <netif_set_up>
	thread_wait(&done, 0, (uint32_t)~0);
	lwip_core_lock();

	lwip_init(&nif, &output_envid, ipaddr, netmask, gw);

	start_timer(&t_arp, &etharp_tmr, "arp timer", ARP_TMR_INTERVAL);
  80063d:	c7 04 24 88 13 00 00 	movl   $0x1388,(%esp)
  800644:	b9 31 0f 81 00       	mov    $0x810f31,%ecx
  800649:	ba fd a0 80 00       	mov    $0x80a0fd,%edx
  80064e:	b8 00 50 81 00       	mov    $0x815000,%eax
  800653:	e8 b9 fe ff ff       	call   800511 <start_timer>
	start_timer(&t_tcpf, &tcp_fasttmr, "tcp f timer", TCP_FAST_INTERVAL);
  800658:	c7 04 24 fa 00 00 00 	movl   $0xfa,(%esp)
  80065f:	b9 3b 0f 81 00       	mov    $0x810f3b,%ecx
  800664:	ba 65 5c 80 00       	mov    $0x805c65,%edx
  800669:	b8 0c 50 81 00       	mov    $0x81500c,%eax
  80066e:	e8 9e fe ff ff       	call   800511 <start_timer>
	start_timer(&t_tcps, &tcp_slowtmr, "tcp s timer", TCP_SLOW_INTERVAL);
  800673:	c7 04 24 f4 01 00 00 	movl   $0x1f4,(%esp)
  80067a:	b9 47 0f 81 00       	mov    $0x810f47,%ecx
  80067f:	ba 66 65 80 00       	mov    $0x806566,%edx
  800684:	b8 18 50 81 00       	mov    $0x815018,%eax
  800689:	e8 83 fe ff ff       	call   800511 <start_timer>

	struct in_addr ia = {ipaddr};
	cprintf("ns: %02x:%02x:%02x:%02x:%02x:%02x"
  80068e:	89 34 24             	mov    %esi,(%esp)
  800691:	e8 0a 77 00 00       	call   807da0 <inet_ntoa>
  800696:	89 44 24 1c          	mov    %eax,0x1c(%esp)
  80069a:	0f b6 05 2a b2 b3 00 	movzbl 0xb3b22a,%eax
  8006a1:	89 44 24 18          	mov    %eax,0x18(%esp)
  8006a5:	0f b6 05 29 b2 b3 00 	movzbl 0xb3b229,%eax
  8006ac:	89 44 24 14          	mov    %eax,0x14(%esp)
  8006b0:	0f b6 05 28 b2 b3 00 	movzbl 0xb3b228,%eax
  8006b7:	89 44 24 10          	mov    %eax,0x10(%esp)
  8006bb:	0f b6 05 27 b2 b3 00 	movzbl 0xb3b227,%eax
  8006c2:	89 44 24 0c          	mov    %eax,0xc(%esp)
  8006c6:	0f b6 05 26 b2 b3 00 	movzbl 0xb3b226,%eax
  8006cd:	89 44 24 08          	mov    %eax,0x8(%esp)
  8006d1:	0f b6 05 25 b2 b3 00 	movzbl 0xb3b225,%eax
  8006d8:	89 44 24 04          	mov    %eax,0x4(%esp)
  8006dc:	c7 04 24 8c 10 81 00 	movl   $0x81108c,(%esp)
  8006e3:	e8 bd eb 00 00       	call   80f2a5 <cprintf>
		" bound to static IP %s\n",
		nif.hwaddr[0], nif.hwaddr[1], nif.hwaddr[2],
		nif.hwaddr[3], nif.hwaddr[4], nif.hwaddr[5],
		inet_ntoa(ia));

	lwip_core_unlock();
  8006e8:	e8 77 9f 00 00       	call   80a664 <lwip_core_unlock>

	cprintf("NS: TCP/IP initialized.\n");
  8006ed:	c7 04 24 53 0f 81 00 	movl   $0x810f53,(%esp)
  8006f4:	e8 ac eb 00 00       	call   80f2a5 <cprintf>
}
  8006f9:	83 c4 30             	add    $0x30,%esp
  8006fc:	5b                   	pop    %ebx
  8006fd:	5e                   	pop    %esi
  8006fe:	5d                   	pop    %ebp
  8006ff:	c3                   	ret    

00800700 <tmain>:
		thread_yield(); // let the thread created run
	}
}

static void
tmain(uint32_t arg) {
  800700:	55                   	push   %ebp
  800701:	89 e5                	mov    %esp,%ebp
  800703:	83 ec 18             	sub    $0x18,%esp
  800706:	89 5d f8             	mov    %ebx,-0x8(%ebp)
  800709:	89 75 fc             	mov    %esi,-0x4(%ebp)
	serve_init(inet_addr(IP),
  80070c:	c7 04 24 6c 0f 81 00 	movl   $0x810f6c,(%esp)
  800713:	e8 4f 79 00 00       	call   808067 <inet_addr>
  800718:	89 c3                	mov    %eax,%ebx
  80071a:	c7 04 24 75 0f 81 00 	movl   $0x810f75,(%esp)
  800721:	e8 41 79 00 00       	call   808067 <inet_addr>
  800726:	89 c6                	mov    %eax,%esi
  800728:	c7 04 24 83 0f 81 00 	movl   $0x810f83,(%esp)
  80072f:	e8 33 79 00 00       	call   808067 <inet_addr>
  800734:	89 5c 24 08          	mov    %ebx,0x8(%esp)
  800738:	89 74 24 04          	mov    %esi,0x4(%esp)
  80073c:	89 04 24             	mov    %eax,(%esp)
  80073f:	e8 2d fe ff ff       	call   800571 <serve_init>
		   inet_addr(MASK),
		   inet_addr(DEFAULT));
	serve();
  800744:	e8 0d fa ff ff       	call   800156 <serve>
}
  800749:	8b 5d f8             	mov    -0x8(%ebp),%ebx
  80074c:	8b 75 fc             	mov    -0x4(%ebp),%esi
  80074f:	89 ec                	mov    %ebp,%esp
  800751:	5d                   	pop    %ebp
  800752:	c3                   	ret    

00800753 <tcpip_init_done>:
		panic("cannot create timer thread: %s", e2s(r));
}

static void
tcpip_init_done(void *arg)
{
  800753:	55                   	push   %ebp
  800754:	89 e5                	mov    %esp,%ebp
  800756:	83 ec 18             	sub    $0x18,%esp
  800759:	8b 45 08             	mov    0x8(%ebp),%eax
	uint32_t *done = arg;
	*done = 1;
  80075c:	c7 00 01 00 00 00    	movl   $0x1,(%eax)
	thread_wakeup(done);
  800762:	89 04 24             	mov    %eax,(%esp)
  800765:	e8 e5 a7 00 00       	call   80af4f <thread_wakeup>
}
  80076a:	c9                   	leave  
  80076b:	c3                   	ret    
  80076c:	00 00                	add    %al,(%eax)
	...

00800770 <timer>:
#include "ns.h"

void
timer(envid_t ns_envid, uint32_t initial_to) {
  800770:	55                   	push   %ebp
  800771:	89 e5                	mov    %esp,%ebp
  800773:	57                   	push   %edi
  800774:	56                   	push   %esi
  800775:	53                   	push   %ebx
  800776:	83 ec 2c             	sub    $0x2c,%esp
  800779:	8b 75 08             	mov    0x8(%ebp),%esi
	int r;
	uint32_t stop = sys_time_msec() + initial_to;
  80077c:	e8 72 f5 00 00       	call   80fcf3 <sys_time_msec>
  800781:	89 c3                	mov    %eax,%ebx
  800783:	03 5d 0c             	add    0xc(%ebp),%ebx

	binaryname = "ns_timer";
  800786:	c7 05 e8 42 81 00 f4 	movl   $0x8110f4,0x8142e8
  80078d:	10 81 00 

		ipc_send(ns_envid, NSREQ_TIMER, 0, 0);

		while (1) {
			uint32_t to, whom;
			to = ipc_recv((int32_t *) &whom, 0, 0);
  800790:	8d 7d e4             	lea    -0x1c(%ebp),%edi
  800793:	eb 05                	jmp    80079a <timer+0x2a>

	binaryname = "ns_timer";

	while (1) {
		while((r = sys_time_msec()) < stop && r >= 0) {
			sys_yield();
  800795:	e8 13 f9 00 00       	call   8100ad <sys_yield>
	uint32_t stop = sys_time_msec() + initial_to;

	binaryname = "ns_timer";

	while (1) {
		while((r = sys_time_msec()) < stop && r >= 0) {
  80079a:	e8 54 f5 00 00       	call   80fcf3 <sys_time_msec>
  80079f:	39 c3                	cmp    %eax,%ebx
  8007a1:	76 06                	jbe    8007a9 <timer+0x39>
  8007a3:	85 c0                	test   %eax,%eax
  8007a5:	79 ee                	jns    800795 <timer+0x25>
  8007a7:	eb 09                	jmp    8007b2 <timer+0x42>
			sys_yield();
		}
		if (r < 0)
  8007a9:	85 c0                	test   %eax,%eax
  8007ab:	90                   	nop
  8007ac:	8d 74 26 00          	lea    0x0(%esi,%eiz,1),%esi
  8007b0:	79 20                	jns    8007d2 <timer+0x62>
			panic("sys_time_msec: %e", r);
  8007b2:	89 44 24 0c          	mov    %eax,0xc(%esp)
  8007b6:	c7 44 24 08 fd 10 81 	movl   $0x8110fd,0x8(%esp)
  8007bd:	00 
  8007be:	c7 44 24 04 0f 00 00 	movl   $0xf,0x4(%esp)
  8007c5:	00 
  8007c6:	c7 04 24 0f 11 81 00 	movl   $0x81110f,(%esp)
  8007cd:	e8 1a ea 00 00       	call   80f1ec <_panic>

		ipc_send(ns_envid, NSREQ_TIMER, 0, 0);
  8007d2:	c7 44 24 0c 00 00 00 	movl   $0x0,0xc(%esp)
  8007d9:	00 
  8007da:	c7 44 24 08 00 00 00 	movl   $0x0,0x8(%esp)
  8007e1:	00 
  8007e2:	c7 44 24 04 0c 00 00 	movl   $0xc,0x4(%esp)
  8007e9:	00 
  8007ea:	89 34 24             	mov    %esi,(%esp)
  8007ed:	e8 70 fd 00 00       	call   810562 <ipc_send>

		while (1) {
			uint32_t to, whom;
			to = ipc_recv((int32_t *) &whom, 0, 0);
  8007f2:	c7 44 24 08 00 00 00 	movl   $0x0,0x8(%esp)
  8007f9:	00 
  8007fa:	c7 44 24 04 00 00 00 	movl   $0x0,0x4(%esp)
  800801:	00 
  800802:	89 3c 24             	mov    %edi,(%esp)
  800805:	e8 c4 fd 00 00       	call   8105ce <ipc_recv>
  80080a:	89 c3                	mov    %eax,%ebx

			if (whom != ns_envid) {
  80080c:	8b 45 e4             	mov    -0x1c(%ebp),%eax
  80080f:	39 c6                	cmp    %eax,%esi
  800811:	74 12                	je     800825 <timer+0xb5>
				cprintf("NS TIMER: timer thread got IPC message from env %x not NS\n", whom);
  800813:	89 44 24 04          	mov    %eax,0x4(%esp)
  800817:	c7 04 24 1c 11 81 00 	movl   $0x81111c,(%esp)
  80081e:	e8 82 ea 00 00       	call   80f2a5 <cprintf>
				continue;
			}

			stop = sys_time_msec() + to;
			break;
		}
  800823:	eb cd                	jmp    8007f2 <timer+0x82>
			if (whom != ns_envid) {
				cprintf("NS TIMER: timer thread got IPC message from env %x not NS\n", whom);
				continue;
			}

			stop = sys_time_msec() + to;
  800825:	e8 c9 f4 00 00       	call   80fcf3 <sys_time_msec>
  80082a:	01 c3                	add    %eax,%ebx
  80082c:	8d 74 26 00          	lea    0x0(%esi,%eiz,1),%esi
  800830:	e9 65 ff ff ff       	jmp    80079a <timer+0x2a>
	...

00800840 <input>:

void
input(envid_t ns_envid)
//void
//umain(int argc, char **argv)
{
  800840:	55                   	push   %ebp
  800841:	89 e5                	mov    %esp,%ebp
  800843:	57                   	push   %edi
  800844:	56                   	push   %esi
  800845:	53                   	push   %ebx
  800846:	83 ec 2c             	sub    $0x2c,%esp
	uint32_t req, whom, size;
	int perm, ret, even_odd = 0;
	envid_t to_env;

	binaryname = "ns_input";
  800849:	c7 05 e8 42 81 00 57 	movl   $0x811157,0x8142e8
  800850:	11 81 00 
  800853:	bb 00 00 00 00       	mov    $0x0,%ebx
	// reading from it for a while, so don't immediately receive
	// another packet in to the same physical page.

	while (1) 
	{
		ret = sys_net_receive((void *)INPUT_PKTMAP,&size);
  800858:	8d 75 e4             	lea    -0x1c(%ebp),%esi
			ipc_send(ns_envid,NSREQ_INPUT,&nsipcbuf,PTE_P|PTE_W|PTE_U);

		}
		else
		{
			nsipcbuf_1.pkt.jp_len = size;
  80085b:	bf 00 c0 b3 00       	mov    $0xb3c000,%edi
	// reading from it for a while, so don't immediately receive
	// another packet in to the same physical page.

	while (1) 
	{
		ret = sys_net_receive((void *)INPUT_PKTMAP,&size);
  800860:	89 74 24 04          	mov    %esi,0x4(%esp)
  800864:	c7 04 24 00 00 00 10 	movl   $0x10000000,(%esp)
  80086b:	e8 b7 f4 00 00       	call   80fd27 <sys_net_receive>
		if( ret == -E_NO_RDESC ) 
  800870:	83 f8 ef             	cmp    $0xffffffef,%eax
  800873:	75 07                	jne    80087c <input+0x3c>
		  {sys_yield(); continue;}
  800875:	e8 33 f8 00 00       	call   8100ad <sys_yield>
  80087a:	eb e4                	jmp    800860 <input+0x20>
		cprintf("%s get an input packet size %u\n",__func__,size);
  80087c:	8b 45 e4             	mov    -0x1c(%ebp),%eax
  80087f:	89 44 24 08          	mov    %eax,0x8(%esp)
  800883:	c7 44 24 04 80 11 81 	movl   $0x811180,0x4(%esp)
  80088a:	00 
  80088b:	c7 04 24 60 11 81 00 	movl   $0x811160,(%esp)
  800892:	e8 0e ea 00 00       	call   80f2a5 <cprintf>

		if(even_odd)
  800897:	85 db                	test   %ebx,%ebx
  800899:	74 45                	je     8008e0 <input+0xa0>
		{
			nsipcbuf.pkt.jp_len = size;
  80089b:	8b 45 e4             	mov    -0x1c(%ebp),%eax
  80089e:	a3 00 d0 b3 00       	mov    %eax,0xb3d000
			memmove(nsipcbuf.pkt.jp_data,(void *)INPUT_PKTMAP,nsipcbuf.pkt.jp_len);
  8008a3:	89 44 24 08          	mov    %eax,0x8(%esp)
  8008a7:	c7 44 24 04 00 00 00 	movl   $0x10000000,0x4(%esp)
  8008ae:	10 
  8008af:	c7 04 24 04 d0 b3 00 	movl   $0xb3d004,(%esp)
  8008b6:	e8 f4 f1 00 00       	call   80faaf <memmove>
			ipc_send(ns_envid,NSREQ_INPUT,&nsipcbuf,PTE_P|PTE_W|PTE_U);
  8008bb:	c7 44 24 0c 07 00 00 	movl   $0x7,0xc(%esp)
  8008c2:	00 
  8008c3:	c7 44 24 08 00 d0 b3 	movl   $0xb3d000,0x8(%esp)
  8008ca:	00 
  8008cb:	c7 44 24 04 0a 00 00 	movl   $0xa,0x4(%esp)
  8008d2:	00 
  8008d3:	8b 45 08             	mov    0x8(%ebp),%eax
  8008d6:	89 04 24             	mov    %eax,(%esp)
  8008d9:	e8 84 fc 00 00       	call   810562 <ipc_send>
  8008de:	eb 3c                	jmp    80091c <input+0xdc>

		}
		else
		{
			nsipcbuf_1.pkt.jp_len = size;
  8008e0:	8b 45 e4             	mov    -0x1c(%ebp),%eax
  8008e3:	89 07                	mov    %eax,(%edi)
			memmove(nsipcbuf_1.pkt.jp_data,(void *)INPUT_PKTMAP,nsipcbuf_1.pkt.jp_len);
  8008e5:	89 44 24 08          	mov    %eax,0x8(%esp)
  8008e9:	c7 44 24 04 00 00 00 	movl   $0x10000000,0x4(%esp)
  8008f0:	10 
  8008f1:	c7 04 24 04 c0 b3 00 	movl   $0xb3c004,(%esp)
  8008f8:	e8 b2 f1 00 00       	call   80faaf <memmove>
			ipc_send(ns_envid,NSREQ_INPUT,&nsipcbuf_1,PTE_P|PTE_W|PTE_U);
  8008fd:	c7 44 24 0c 07 00 00 	movl   $0x7,0xc(%esp)
  800904:	00 
  800905:	89 7c 24 08          	mov    %edi,0x8(%esp)
  800909:	c7 44 24 04 0a 00 00 	movl   $0xa,0x4(%esp)
  800910:	00 
  800911:	8b 45 08             	mov    0x8(%ebp),%eax
  800914:	89 04 24             	mov    %eax,(%esp)
  800917:	e8 46 fc 00 00       	call   810562 <ipc_send>
		}
		even_odd = (even_odd+1)%2;
  80091c:	83 c3 01             	add    $0x1,%ebx
  80091f:	89 d8                	mov    %ebx,%eax
  800921:	c1 e8 1f             	shr    $0x1f,%eax
  800924:	01 c3                	add    %eax,%ebx
  800926:	83 e3 01             	and    $0x1,%ebx
  800929:	29 c3                	sub    %eax,%ebx
		sys_yield();
  80092b:	e8 7d f7 00 00       	call   8100ad <sys_yield>
  800930:	e9 2b ff ff ff       	jmp    800860 <input+0x20>
  800935:	00 00                	add    %al,(%eax)
	...

00800938 <output>:

void
output(envid_t ns_envid)
//void
//umain(int argc, char **argv)
{
  800938:	55                   	push   %ebp
  800939:	89 e5                	mov    %esp,%ebp
  80093b:	57                   	push   %edi
  80093c:	56                   	push   %esi
  80093d:	53                   	push   %ebx
  80093e:	83 ec 3c             	sub    $0x3c,%esp
	//	- send the packet to the device driver
	uint32_t req, whom;
	int perm, ret;
	void *pg;

	binaryname = "ns_output";
  800941:	c7 05 e8 42 81 00 86 	movl   $0x811186,0x8142e8
  800948:	11 81 00 
	//cprintf("output is running\n");

	while (1) {
		perm = 0;
		req = ipc_recv((int32_t *) &whom, &nsipcbuf, &perm);
  80094b:	8d 75 e0             	lea    -0x20(%ebp),%esi
  80094e:	8d 7d e4             	lea    -0x1c(%ebp),%edi

	binaryname = "ns_output";
	//cprintf("output is running\n");

	while (1) {
		perm = 0;
  800951:	c7 45 e0 00 00 00 00 	movl   $0x0,-0x20(%ebp)
		req = ipc_recv((int32_t *) &whom, &nsipcbuf, &perm);
  800958:	89 74 24 08          	mov    %esi,0x8(%esp)
  80095c:	c7 44 24 04 00 d0 b3 	movl   $0xb3d000,0x4(%esp)
  800963:	00 
  800964:	89 3c 24             	mov    %edi,(%esp)
  800967:	e8 62 fc 00 00       	call   8105ce <ipc_recv>

		cprintf("%s req %d from %08x size %u\n", __func__, req, whom, nsipcbuf.pkt.jp_len);
  80096c:	8b 15 00 d0 b3 00    	mov    0xb3d000,%edx
  800972:	89 54 24 10          	mov    %edx,0x10(%esp)
  800976:	8b 55 e4             	mov    -0x1c(%ebp),%edx
  800979:	89 54 24 0c          	mov    %edx,0xc(%esp)
  80097d:	89 44 24 08          	mov    %eax,0x8(%esp)
  800981:	c7 44 24 04 f3 11 81 	movl   $0x8111f3,0x4(%esp)
  800988:	00 
  800989:	c7 04 24 90 11 81 00 	movl   $0x811190,(%esp)
  800990:	e8 10 e9 00 00       	call   80f2a5 <cprintf>

		// All requests must contain an argument page
		if (!(perm & PTE_P)) 
  800995:	f6 45 e0 01          	testb  $0x1,-0x20(%ebp)
  800999:	75 15                	jne    8009b0 <output+0x78>
		{
			cprintf("Invalid request from %08x: no argument page\n",whom);
  80099b:	8b 45 e4             	mov    -0x1c(%ebp),%eax
  80099e:	89 44 24 04          	mov    %eax,0x4(%esp)
  8009a2:	c7 04 24 cc 0f 81 00 	movl   $0x810fcc,(%esp)
  8009a9:	e8 f7 e8 00 00       	call   80f2a5 <cprintf>
			continue;
  8009ae:	eb a1                	jmp    800951 <output+0x19>
		}

		if(whom != ns_envid)
  8009b0:	8b 45 08             	mov    0x8(%ebp),%eax
  8009b3:	3b 45 e4             	cmp    -0x1c(%ebp),%eax
  8009b6:	74 24                	je     8009dc <output+0xa4>
			panic("%s get message from wrong environments",__func__);
  8009b8:	c7 44 24 0c f3 11 81 	movl   $0x8111f3,0xc(%esp)
  8009bf:	00 
  8009c0:	c7 44 24 08 cc 11 81 	movl   $0x8111cc,0x8(%esp)
  8009c7:	00 
  8009c8:	c7 44 24 04 24 00 00 	movl   $0x24,0x4(%esp)
  8009cf:	00 
  8009d0:	c7 04 24 ad 11 81 00 	movl   $0x8111ad,(%esp)
  8009d7:	e8 10 e8 00 00       	call   80f1ec <_panic>

		do 
		{ret = sys_net_send(nsipcbuf.pkt.jp_data,nsipcbuf.pkt.jp_len);}
  8009dc:	bb 00 d0 b3 00       	mov    $0xb3d000,%ebx
  8009e1:	8b 03                	mov    (%ebx),%eax
  8009e3:	89 44 24 04          	mov    %eax,0x4(%esp)
  8009e7:	c7 04 24 04 d0 b3 00 	movl   $0xb3d004,(%esp)
  8009ee:	e8 92 f3 00 00       	call   80fd85 <sys_net_send>
		while(ret == -E_NO_TXDESC);
  8009f3:	83 f8 f0             	cmp    $0xfffffff0,%eax
  8009f6:	74 e9                	je     8009e1 <output+0xa9>

		if(ret)panic("output error %e\n",ret);
  8009f8:	85 c0                	test   %eax,%eax
  8009fa:	0f 84 51 ff ff ff    	je     800951 <output+0x19>
  800a00:	89 44 24 0c          	mov    %eax,0xc(%esp)
  800a04:	c7 44 24 08 ba 11 81 	movl   $0x8111ba,0x8(%esp)
  800a0b:	00 
  800a0c:	c7 44 24 04 2a 00 00 	movl   $0x2a,0x4(%esp)
  800a13:	00 
  800a14:	c7 04 24 ad 11 81 00 	movl   $0x8111ad,(%esp)
  800a1b:	e8 cc e7 00 00       	call   80f1ec <_panic>

00800a20 <get_socket>:
 * @param s externally used socket index
 * @return struct lwip_socket for the socket or NULL if not found
 */
static struct lwip_socket *
get_socket(int s)
{
  800a20:	55                   	push   %ebp
  800a21:	89 e5                	mov    %esp,%ebp
  struct lwip_socket *sock;

  if ((s < 0) || (s >= NUM_SOCKETS)) {
  800a23:	83 f8 1f             	cmp    $0x1f,%eax
  800a26:	76 11                	jbe    800a39 <get_socket+0x19>
    LWIP_DEBUGF(SOCKETS_DEBUG, ("get_socket(%d): invalid\n", s));
    set_errno(EBADF);
  800a28:	c7 05 e0 b1 b3 00 09 	movl   $0x9,0xb3b1e0
  800a2f:	00 00 00 
  800a32:	b8 00 00 00 00       	mov    $0x0,%eax
    return NULL;
  800a37:	eb 1e                	jmp    800a57 <get_socket+0x37>
  }

  sock = &sockets[s];
  800a39:	8d 04 80             	lea    (%eax,%eax,4),%eax
  800a3c:	8d 04 85 60 50 81 00 	lea    0x815060(,%eax,4),%eax

  if (!sock->conn) {
  800a43:	83 38 00             	cmpl   $0x0,(%eax)
  800a46:	75 0f                	jne    800a57 <get_socket+0x37>
    LWIP_DEBUGF(SOCKETS_DEBUG, ("get_socket(%d): not active\n", s));
    set_errno(EBADF);
  800a48:	c7 05 e0 b1 b3 00 09 	movl   $0x9,0xb3b1e0
  800a4f:	00 00 00 
  800a52:	b8 00 00 00 00       	mov    $0x0,%eax
    return NULL;
  }

  return sock;
}
  800a57:	5d                   	pop    %ebp
  800a58:	c3                   	ret    

00800a59 <lwip_ioctl>:
  sys_sem_signal(sock->conn->op_completed);
}

int
lwip_ioctl(int s, long cmd, void *argp)
{
  800a59:	55                   	push   %ebp
  800a5a:	89 e5                	mov    %esp,%ebp
  800a5c:	56                   	push   %esi
  800a5d:	53                   	push   %ebx
  800a5e:	8b 5d 0c             	mov    0xc(%ebp),%ebx
  800a61:	8b 75 10             	mov    0x10(%ebp),%esi
  struct lwip_socket *sock = get_socket(s);
  800a64:	8b 45 08             	mov    0x8(%ebp),%eax
  800a67:	e8 b4 ff ff ff       	call   800a20 <get_socket>
  u16_t buflen = 0;

  if (!sock)
  800a6c:	ba ff ff ff ff       	mov    $0xffffffff,%edx
  800a71:	85 c0                	test   %eax,%eax
  800a73:	0f 84 a1 00 00 00    	je     800b1a <lwip_ioctl+0xc1>
    return -1;

  switch (cmd) {
  800a79:	81 fb 7e 66 04 80    	cmp    $0x8004667e,%ebx
  800a7f:	74 54                	je     800ad5 <lwip_ioctl+0x7c>
  800a81:	81 fb 7f 66 04 40    	cmp    $0x4004667f,%ebx
  800a87:	75 7b                	jne    800b04 <lwip_ioctl+0xab>
  case FIONREAD:
    if (!argp) {
  800a89:	85 f6                	test   %esi,%esi
  800a8b:	75 13                	jne    800aa0 <lwip_ioctl+0x47>
      sock_set_errno(sock, EINVAL);
  800a8d:	c7 40 10 16 00 00 00 	movl   $0x16,0x10(%eax)
  800a94:	c7 05 e0 b1 b3 00 16 	movl   $0x16,0xb3b1e0
  800a9b:	00 00 00 
      return -1;
  800a9e:	eb 7a                	jmp    800b1a <lwip_ioctl+0xc1>
    }

    SYS_ARCH_GET(sock->conn->recv_avail, *((u16_t*)argp));
  800aa0:	8b 10                	mov    (%eax),%edx
  800aa2:	0f b7 52 20          	movzwl 0x20(%edx),%edx
  800aa6:	66 89 16             	mov    %dx,(%esi)

    /* Check if there is data left from the last recv operation. /maq 041215 */
    if (sock->lastdata) {
  800aa9:	8b 48 04             	mov    0x4(%eax),%ecx
  800aac:	85 c9                	test   %ecx,%ecx
  800aae:	74 0d                	je     800abd <lwip_ioctl+0x64>
      buflen = netbuf_len(sock->lastdata);
  800ab0:	8b 09                	mov    (%ecx),%ecx
      buflen -= sock->lastoffset;

      *((u16_t*)argp) += buflen;
  800ab2:	66 03 51 08          	add    0x8(%ecx),%dx
  800ab6:	66 2b 50 08          	sub    0x8(%eax),%dx
  800aba:	66 89 16             	mov    %dx,(%esi)
    }

    LWIP_DEBUGF(SOCKETS_DEBUG, ("lwip_ioctl(%d, FIONREAD, %p) = %u\n", s, argp, *((u16_t*)argp)));
    sock_set_errno(sock, 0);
  800abd:	c7 40 10 00 00 00 00 	movl   $0x0,0x10(%eax)
  800ac4:	c7 05 e0 b1 b3 00 00 	movl   $0x0,0xb3b1e0
  800acb:	00 00 00 
  800ace:	ba 00 00 00 00       	mov    $0x0,%edx
    return 0;
  800ad3:	eb 45                	jmp    800b1a <lwip_ioctl+0xc1>

  case FIONBIO:
    if (argp && *(u32_t*)argp)
  800ad5:	85 f6                	test   %esi,%esi
  800ad7:	74 0d                	je     800ae6 <lwip_ioctl+0x8d>
  800ad9:	83 3e 00             	cmpl   $0x0,(%esi)
  800adc:	74 08                	je     800ae6 <lwip_ioctl+0x8d>
      sock->flags |= O_NONBLOCK;
  800ade:	66 81 48 0e 00 08    	orw    $0x800,0xe(%eax)
    LWIP_DEBUGF(SOCKETS_DEBUG, ("lwip_ioctl(%d, FIONREAD, %p) = %u\n", s, argp, *((u16_t*)argp)));
    sock_set_errno(sock, 0);
    return 0;

  case FIONBIO:
    if (argp && *(u32_t*)argp)
  800ae4:	eb 06                	jmp    800aec <lwip_ioctl+0x93>
      sock->flags |= O_NONBLOCK;
    else
      sock->flags &= ~O_NONBLOCK;
  800ae6:	66 81 60 0e ff f7    	andw   $0xf7ff,0xe(%eax)
    LWIP_DEBUGF(SOCKETS_DEBUG, ("lwip_ioctl(%d, FIONBIO, %d)\n", s, !!(sock->flags & O_NONBLOCK)));
    sock_set_errno(sock, 0);
  800aec:	c7 40 10 00 00 00 00 	movl   $0x0,0x10(%eax)
  800af3:	c7 05 e0 b1 b3 00 00 	movl   $0x0,0xb3b1e0
  800afa:	00 00 00 
  800afd:	ba 00 00 00 00       	mov    $0x0,%edx
    return 0;
  800b02:	eb 16                	jmp    800b1a <lwip_ioctl+0xc1>

  default:
    LWIP_DEBUGF(SOCKETS_DEBUG, ("lwip_ioctl(%d, UNIMPL: 0x%lx, %p)\n", s, cmd, argp));
    sock_set_errno(sock, ENOSYS); /* not yet implemented */
  800b04:	c7 40 10 26 00 00 00 	movl   $0x26,0x10(%eax)
  800b0b:	c7 05 e0 b1 b3 00 26 	movl   $0x26,0xb3b1e0
  800b12:	00 00 00 
  800b15:	ba ff ff ff ff       	mov    $0xffffffff,%edx
    return -1;
  } /* switch (cmd) */
}
  800b1a:	89 d0                	mov    %edx,%eax
  800b1c:	5b                   	pop    %ebx
  800b1d:	5e                   	pop    %esi
  800b1e:	5d                   	pop    %ebp
  800b1f:	c3                   	ret    

00800b20 <lwip_setsockopt>:
  sys_sem_signal(sock->conn->op_completed);
}

int
lwip_setsockopt(int s, int level, int optname, const void *optval, socklen_t optlen)
{
  800b20:	55                   	push   %ebp
  800b21:	89 e5                	mov    %esp,%ebp
  800b23:	83 ec 48             	sub    $0x48,%esp
  800b26:	89 5d f4             	mov    %ebx,-0xc(%ebp)
  800b29:	89 75 f8             	mov    %esi,-0x8(%ebp)
  800b2c:	89 7d fc             	mov    %edi,-0x4(%ebp)
  800b2f:	8b 75 0c             	mov    0xc(%ebp),%esi
  800b32:	8b 7d 14             	mov    0x14(%ebp),%edi
  struct lwip_socket *sock = get_socket(s);
  800b35:	8b 45 08             	mov    0x8(%ebp),%eax
  800b38:	e8 e3 fe ff ff       	call   800a20 <get_socket>
  800b3d:	89 c3                	mov    %eax,%ebx
  int err = ERR_OK;
  struct lwip_setgetsockopt_data data;

  if (!sock)
  800b3f:	85 c0                	test   %eax,%eax
  800b41:	0f 84 28 01 00 00    	je     800c6f <lwip_setsockopt+0x14f>
    return -1;

  if (NULL == optval) {
  800b47:	85 ff                	test   %edi,%edi
  800b49:	75 1b                	jne    800b66 <lwip_setsockopt+0x46>
    sock_set_errno(sock, EFAULT);
  800b4b:	c7 40 10 0e 00 00 00 	movl   $0xe,0x10(%eax)
  800b52:	c7 05 e0 b1 b3 00 0e 	movl   $0xe,0xb3b1e0
  800b59:	00 00 00 
  800b5c:	b8 ff ff ff ff       	mov    $0xffffffff,%eax
    return -1;
  800b61:	e9 15 01 00 00       	jmp    800c7b <lwip_setsockopt+0x15b>
  }

  /* Do length and type checks for the various options first, to keep it readable. */
  switch (level) {
  800b66:	83 fe 06             	cmp    $0x6,%esi
  800b69:	74 6c                	je     800bd7 <lwip_setsockopt+0xb7>
  800b6b:	81 fe ff 0f 00 00    	cmp    $0xfff,%esi
  800b71:	74 09                	je     800b7c <lwip_setsockopt+0x5c>
  800b73:	85 f6                	test   %esi,%esi
  800b75:	74 49                	je     800bc0 <lwip_setsockopt+0xa0>
  800b77:	e9 82 00 00 00       	jmp    800bfe <lwip_setsockopt+0xde>

/* Level: SOL_SOCKET */
  case SOL_SOCKET:
    switch (optname) {
  800b7c:	83 7d 10 20          	cmpl   $0x20,0x10(%ebp)
  800b80:	74 0f                	je     800b91 <lwip_setsockopt+0x71>
  800b82:	81 7d 10 0a 10 00 00 	cmpl   $0x100a,0x10(%ebp)
  800b89:	74 12                	je     800b9d <lwip_setsockopt+0x7d>
  800b8b:	83 7d 10 08          	cmpl   $0x8,0x10(%ebp)
  800b8f:	75 6d                	jne    800bfe <lwip_setsockopt+0xde>
#if SO_REUSE
    case SO_REUSEADDR:
    case SO_REUSEPORT:
#endif /* SO_REUSE */
    /* UNIMPL case SO_USELOOPBACK: */
      if (optlen < sizeof(int)) {
  800b91:	83 7d 18 03          	cmpl   $0x3,0x18(%ebp)
  800b95:	0f 86 ed 00 00 00    	jbe    800c88 <lwip_setsockopt+0x168>
  800b9b:	eb 79                	jmp    800c16 <lwip_setsockopt+0xf6>
        err = EINVAL;
      }
      break;
    case SO_NO_CHECK:
      if (optlen < sizeof(int)) {
  800b9d:	83 7d 18 04          	cmpl   $0x4,0x18(%ebp)
  800ba1:	19 c0                	sbb    %eax,%eax
  800ba3:	83 e0 16             	and    $0x16,%eax
        err = EINVAL;
      }
#if LWIP_UDP
      if ((sock->conn->type != NETCONN_UDP) ||
  800ba6:	8b 13                	mov    (%ebx),%edx
  800ba8:	83 3a 20             	cmpl   $0x20,(%edx)
  800bab:	0f 85 e1 00 00 00    	jne    800c92 <lwip_setsockopt+0x172>
          ((udp_flags(sock->conn->pcb.udp) & UDP_FLAGS_UDPLITE) != 0)) {
  800bb1:	8b 52 08             	mov    0x8(%edx),%edx
    case SO_NO_CHECK:
      if (optlen < sizeof(int)) {
        err = EINVAL;
      }
#if LWIP_UDP
      if ((sock->conn->type != NETCONN_UDP) ||
  800bb4:	f6 42 10 02          	testb  $0x2,0x10(%edx)
  800bb8:	0f 85 d4 00 00 00    	jne    800c92 <lwip_setsockopt+0x172>
  800bbe:	eb 43                	jmp    800c03 <lwip_setsockopt+0xe3>
    }  /* switch (optname) */
    break;

/* Level: IPPROTO_IP */
  case IPPROTO_IP:
    switch (optname) {
  800bc0:	8b 45 10             	mov    0x10(%ebp),%eax
  800bc3:	83 e8 01             	sub    $0x1,%eax
  800bc6:	83 f8 01             	cmp    $0x1,%eax
  800bc9:	77 33                	ja     800bfe <lwip_setsockopt+0xde>
    /* UNIMPL case IP_HDRINCL: */
    /* UNIMPL case IP_RCVDSTADDR: */
    /* UNIMPL case IP_RCVIF: */
    case IP_TTL:
    case IP_TOS:
      if (optlen < sizeof(int)) {
  800bcb:	83 7d 18 03          	cmpl   $0x3,0x18(%ebp)
  800bcf:	0f 86 b3 00 00 00    	jbe    800c88 <lwip_setsockopt+0x168>
  800bd5:	eb 3f                	jmp    800c16 <lwip_setsockopt+0xf6>
    break;

#if LWIP_TCP
/* Level: IPPROTO_TCP */
  case IPPROTO_TCP:
    if (optlen < sizeof(int)) {
  800bd7:	83 7d 18 03          	cmpl   $0x3,0x18(%ebp)
  800bdb:	0f 86 a7 00 00 00    	jbe    800c88 <lwip_setsockopt+0x168>
      err = EINVAL;
      break;
    }

    /* If this is no TCP socket, ignore any options. */
    if (sock->conn->type != NETCONN_TCP)
  800be1:	8b 00                	mov    (%eax),%eax
  800be3:	83 38 10             	cmpl   $0x10,(%eax)
  800be6:	0f 85 8a 00 00 00    	jne    800c76 <lwip_setsockopt+0x156>
  800bec:	8b 55 10             	mov    0x10(%ebp),%edx
  800bef:	83 ea 01             	sub    $0x1,%edx
  800bf2:	b8 5c 00 00 00       	mov    $0x5c,%eax
  800bf7:	83 fa 01             	cmp    $0x1,%edx
  800bfa:	77 0b                	ja     800c07 <lwip_setsockopt+0xe7>
  800bfc:	eb 18                	jmp    800c16 <lwip_setsockopt+0xf6>
  800bfe:	b8 5c 00 00 00       	mov    $0x5c,%eax
                s, level, optname));
    err = ENOPROTOOPT;
  }  /* switch (level) */


  if (err != ERR_OK) {
  800c03:	85 c0                	test   %eax,%eax
  800c05:	74 0f                	je     800c16 <lwip_setsockopt+0xf6>
    sock_set_errno(sock, err);
  800c07:	89 43 10             	mov    %eax,0x10(%ebx)
  800c0a:	a3 e0 b1 b3 00       	mov    %eax,0xb3b1e0
  800c0f:	b8 ff ff ff ff       	mov    $0xffffffff,%eax
    return -1;
  800c14:	eb 65                	jmp    800c7b <lwip_setsockopt+0x15b>
  }


  /* Now do the actual option processing */
  data.sock = sock;
  800c16:	89 5d cc             	mov    %ebx,-0x34(%ebp)
  data.level = level;
  800c19:	89 75 d4             	mov    %esi,-0x2c(%ebp)
  data.optname = optname;
  800c1c:	8b 45 10             	mov    0x10(%ebp),%eax
  800c1f:	89 45 d8             	mov    %eax,-0x28(%ebp)
  data.optval = (void*)optval;
  800c22:	89 7d dc             	mov    %edi,-0x24(%ebp)
  data.optlen = &optlen;
  800c25:	8d 45 18             	lea    0x18(%ebp),%eax
  800c28:	89 45 e0             	mov    %eax,-0x20(%ebp)
  data.err = err;
  800c2b:	c6 45 e4 00          	movb   $0x0,-0x1c(%ebp)
  tcpip_callback(lwip_setsockopt_internal, &data);
  800c2f:	c7 44 24 08 01 00 00 	movl   $0x1,0x8(%esp)
  800c36:	00 
  800c37:	8d 45 cc             	lea    -0x34(%ebp),%eax
  800c3a:	89 44 24 04          	mov    %eax,0x4(%esp)
  800c3e:	c7 04 24 44 0e 80 00 	movl   $0x800e44,(%esp)
  800c45:	e8 41 1a 00 00       	call   80268b <tcpip_callback_with_block>
  sys_arch_sem_wait(sock->conn->op_completed, 0);
  800c4a:	c7 44 24 04 00 00 00 	movl   $0x0,0x4(%esp)
  800c51:	00 
  800c52:	8b 03                	mov    (%ebx),%eax
  800c54:	8b 40 10             	mov    0x10(%eax),%eax
  800c57:	89 04 24             	mov    %eax,(%esp)
  800c5a:	e8 4e 9d 00 00       	call   80a9ad <sys_arch_sem_wait>
  /* maybe lwip_setsockopt_internal has changed err */
  err = data.err;
  800c5f:	0f be 45 e4          	movsbl -0x1c(%ebp),%eax

  sock_set_errno(sock, err);
  800c63:	89 43 10             	mov    %eax,0x10(%ebx)
  800c66:	a3 e0 b1 b3 00       	mov    %eax,0xb3b1e0
  return err ? -1 : 0;
  800c6b:	85 c0                	test   %eax,%eax
  800c6d:	74 07                	je     800c76 <lwip_setsockopt+0x156>
  800c6f:	b8 ff ff ff ff       	mov    $0xffffffff,%eax
  800c74:	eb 05                	jmp    800c7b <lwip_setsockopt+0x15b>
  800c76:	b8 00 00 00 00       	mov    $0x0,%eax
}
  800c7b:	8b 5d f4             	mov    -0xc(%ebp),%ebx
  800c7e:	8b 75 f8             	mov    -0x8(%ebp),%esi
  800c81:	8b 7d fc             	mov    -0x4(%ebp),%edi
  800c84:	89 ec                	mov    %ebp,%esp
  800c86:	5d                   	pop    %ebp
  800c87:	c3                   	ret    
  sys_arch_sem_wait(sock->conn->op_completed, 0);
  /* maybe lwip_setsockopt_internal has changed err */
  err = data.err;

  sock_set_errno(sock, err);
  return err ? -1 : 0;
  800c88:	b8 16 00 00 00       	mov    $0x16,%eax
  800c8d:	e9 75 ff ff ff       	jmp    800c07 <lwip_setsockopt+0xe7>
  800c92:	b8 61 00 00 00       	mov    $0x61,%eax
  800c97:	e9 6b ff ff ff       	jmp    800c07 <lwip_setsockopt+0xe7>

00800c9c <lwip_getsockopt>:
  return lwip_getaddrname(s, name, namelen, 1);
}

int
lwip_getsockopt(int s, int level, int optname, void *optval, socklen_t *optlen)
{
  800c9c:	55                   	push   %ebp
  800c9d:	89 e5                	mov    %esp,%ebp
  800c9f:	57                   	push   %edi
  800ca0:	56                   	push   %esi
  800ca1:	53                   	push   %ebx
  800ca2:	83 ec 3c             	sub    $0x3c,%esp
  800ca5:	8b 75 0c             	mov    0xc(%ebp),%esi
  800ca8:	8b 7d 18             	mov    0x18(%ebp),%edi
  err_t err = ERR_OK;
  struct lwip_socket *sock = get_socket(s);
  800cab:	8b 45 08             	mov    0x8(%ebp),%eax
  800cae:	e8 6d fd ff ff       	call   800a20 <get_socket>
  800cb3:	89 c3                	mov    %eax,%ebx
  struct lwip_setgetsockopt_data data;

  if (!sock)
  800cb5:	85 c0                	test   %eax,%eax
  800cb7:	0f 84 5f 01 00 00    	je     800e1c <lwip_getsockopt+0x180>
    return -1;

  if ((NULL == optval) || (NULL == optlen)) {
  800cbd:	83 7d 14 00          	cmpl   $0x0,0x14(%ebp)
  800cc1:	74 04                	je     800cc7 <lwip_getsockopt+0x2b>
  800cc3:	85 ff                	test   %edi,%edi
  800cc5:	75 1b                	jne    800ce2 <lwip_getsockopt+0x46>
    sock_set_errno(sock, EFAULT);
  800cc7:	c7 43 10 0e 00 00 00 	movl   $0xe,0x10(%ebx)
  800cce:	c7 05 e0 b1 b3 00 0e 	movl   $0xe,0xb3b1e0
  800cd5:	00 00 00 
  800cd8:	b8 ff ff ff ff       	mov    $0xffffffff,%eax
    return -1;
  800cdd:	e9 46 01 00 00       	jmp    800e28 <lwip_getsockopt+0x18c>
  }

  /* Do length and type checks for the various options first, to keep it readable. */
  switch (level) {
  800ce2:	83 fe 06             	cmp    $0x6,%esi
  800ce5:	0f 84 93 00 00 00    	je     800d7e <lwip_getsockopt+0xe2>
  800ceb:	81 fe ff 0f 00 00    	cmp    $0xfff,%esi
  800cf1:	74 09                	je     800cfc <lwip_getsockopt+0x60>
  800cf3:	85 f6                	test   %esi,%esi
  800cf5:	74 71                	je     800d68 <lwip_getsockopt+0xcc>
  800cf7:	e9 a8 00 00 00       	jmp    800da4 <lwip_getsockopt+0x108>
   
/* Level: SOL_SOCKET */
  case SOL_SOCKET:
    switch (optname) {
  800cfc:	83 7d 10 20          	cmpl   $0x20,0x10(%ebp)
  800d00:	74 39                	je     800d3b <lwip_getsockopt+0x9f>
  800d02:	83 7d 10 20          	cmpl   $0x20,0x10(%ebp)
  800d06:	7f 12                	jg     800d1a <lwip_getsockopt+0x7e>
  800d08:	83 7d 10 02          	cmpl   $0x2,0x10(%ebp)
  800d0c:	74 2d                	je     800d3b <lwip_getsockopt+0x9f>
  800d0e:	83 7d 10 08          	cmpl   $0x8,0x10(%ebp)
  800d12:	0f 85 8c 00 00 00    	jne    800da4 <lwip_getsockopt+0x108>
  800d18:	eb 21                	jmp    800d3b <lwip_getsockopt+0x9f>
  800d1a:	81 7d 10 07 10 00 00 	cmpl   $0x1007,0x10(%ebp)
  800d21:	0f 8c 7d 00 00 00    	jl     800da4 <lwip_getsockopt+0x108>
  800d27:	81 7d 10 08 10 00 00 	cmpl   $0x1008,0x10(%ebp)
  800d2e:	7e 0b                	jle    800d3b <lwip_getsockopt+0x9f>
  800d30:	81 7d 10 0a 10 00 00 	cmpl   $0x100a,0x10(%ebp)
  800d37:	75 6b                	jne    800da4 <lwip_getsockopt+0x108>
  800d39:	eb 0b                	jmp    800d46 <lwip_getsockopt+0xaa>
    case SO_REUSEADDR:
    case SO_REUSEPORT:
#endif /* SO_REUSE */
    case SO_TYPE:
    /* UNIMPL case SO_USELOOPBACK: */
      if (*optlen < sizeof(int)) {
  800d3b:	83 3f 03             	cmpl   $0x3,(%edi)
  800d3e:	0f 86 ec 00 00 00    	jbe    800e30 <lwip_getsockopt+0x194>
  800d44:	eb 79                	jmp    800dbf <lwip_getsockopt+0x123>
        err = EINVAL;
      }
      break;

    case SO_NO_CHECK:
      if (*optlen < sizeof(int)) {
  800d46:	83 3f 04             	cmpl   $0x4,(%edi)
  800d49:	19 c0                	sbb    %eax,%eax
  800d4b:	83 e0 16             	and    $0x16,%eax
        err = EINVAL;
      }
#if LWIP_UDP
      if ((sock->conn->type != NETCONN_UDP) ||
  800d4e:	8b 13                	mov    (%ebx),%edx
  800d50:	83 3a 20             	cmpl   $0x20,(%edx)
  800d53:	0f 85 e1 00 00 00    	jne    800e3a <lwip_getsockopt+0x19e>
          ((udp_flags(sock->conn->pcb.udp) & UDP_FLAGS_UDPLITE) != 0)) {
  800d59:	8b 52 08             	mov    0x8(%edx),%edx
    case SO_NO_CHECK:
      if (*optlen < sizeof(int)) {
        err = EINVAL;
      }
#if LWIP_UDP
      if ((sock->conn->type != NETCONN_UDP) ||
  800d5c:	f6 42 10 02          	testb  $0x2,0x10(%edx)
  800d60:	0f 85 d4 00 00 00    	jne    800e3a <lwip_getsockopt+0x19e>
  800d66:	eb 41                	jmp    800da9 <lwip_getsockopt+0x10d>
    }  /* switch (optname) */
    break;
                     
/* Level: IPPROTO_IP */
  case IPPROTO_IP:
    switch (optname) {
  800d68:	8b 45 10             	mov    0x10(%ebp),%eax
  800d6b:	83 e8 01             	sub    $0x1,%eax
  800d6e:	83 f8 01             	cmp    $0x1,%eax
  800d71:	77 31                	ja     800da4 <lwip_getsockopt+0x108>
    /* UNIMPL case IP_HDRINCL: */
    /* UNIMPL case IP_RCVDSTADDR: */
    /* UNIMPL case IP_RCVIF: */
    case IP_TTL:
    case IP_TOS:
      if (*optlen < sizeof(int)) {
  800d73:	83 3f 03             	cmpl   $0x3,(%edi)
  800d76:	0f 86 b4 00 00 00    	jbe    800e30 <lwip_getsockopt+0x194>
  800d7c:	eb 41                	jmp    800dbf <lwip_getsockopt+0x123>
    break;
         
#if LWIP_TCP
/* Level: IPPROTO_TCP */
  case IPPROTO_TCP:
    if (*optlen < sizeof(int)) {
  800d7e:	83 3f 03             	cmpl   $0x3,(%edi)
  800d81:	0f 86 a9 00 00 00    	jbe    800e30 <lwip_getsockopt+0x194>
      err = EINVAL;
      break;
    }
    
    /* If this is no TCP socket, ignore any options. */
    if (sock->conn->type != NETCONN_TCP)
  800d87:	8b 00                	mov    (%eax),%eax
  800d89:	83 38 10             	cmpl   $0x10,(%eax)
  800d8c:	0f 85 91 00 00 00    	jne    800e23 <lwip_getsockopt+0x187>
  800d92:	8b 55 10             	mov    0x10(%ebp),%edx
  800d95:	83 ea 01             	sub    $0x1,%edx
  800d98:	b8 5c 00 00 00       	mov    $0x5c,%eax
  800d9d:	83 fa 01             	cmp    $0x1,%edx
  800da0:	77 0b                	ja     800dad <lwip_getsockopt+0x111>
  800da2:	eb 1b                	jmp    800dbf <lwip_getsockopt+0x123>
  800da4:	b8 5c 00 00 00       	mov    $0x5c,%eax
                                  s, level, optname));
      err = ENOPROTOOPT;
  }  /* switch */

   
  if (err != ERR_OK) {
  800da9:	84 c0                	test   %al,%al
  800dab:	74 12                	je     800dbf <lwip_getsockopt+0x123>
    sock_set_errno(sock, err);
  800dad:	0f be c0             	movsbl %al,%eax
  800db0:	89 43 10             	mov    %eax,0x10(%ebx)
  800db3:	a3 e0 b1 b3 00       	mov    %eax,0xb3b1e0
  800db8:	b8 ff ff ff ff       	mov    $0xffffffff,%eax
    return -1;
  800dbd:	eb 69                	jmp    800e28 <lwip_getsockopt+0x18c>
  }

  /* Now do the actual option processing */
  data.sock = sock;
  800dbf:	89 5d cc             	mov    %ebx,-0x34(%ebp)
  data.level = level;
  800dc2:	89 75 d4             	mov    %esi,-0x2c(%ebp)
  data.optname = optname;
  800dc5:	8b 45 10             	mov    0x10(%ebp),%eax
  800dc8:	89 45 d8             	mov    %eax,-0x28(%ebp)
  data.optval = optval;
  800dcb:	8b 45 14             	mov    0x14(%ebp),%eax
  800dce:	89 45 dc             	mov    %eax,-0x24(%ebp)
  data.optlen = optlen;
  800dd1:	89 7d e0             	mov    %edi,-0x20(%ebp)
  data.err = err;
  800dd4:	c6 45 e4 00          	movb   $0x0,-0x1c(%ebp)
  tcpip_callback(lwip_getsockopt_internal, &data);
  800dd8:	c7 44 24 08 01 00 00 	movl   $0x1,0x8(%esp)
  800ddf:	00 
  800de0:	8d 45 cc             	lea    -0x34(%ebp),%eax
  800de3:	89 44 24 04          	mov    %eax,0x4(%esp)
  800de7:	c7 04 24 4f 0f 80 00 	movl   $0x800f4f,(%esp)
  800dee:	e8 98 18 00 00       	call   80268b <tcpip_callback_with_block>
  sys_arch_sem_wait(sock->conn->op_completed, 0);
  800df3:	c7 44 24 04 00 00 00 	movl   $0x0,0x4(%esp)
  800dfa:	00 
  800dfb:	8b 03                	mov    (%ebx),%eax
  800dfd:	8b 40 10             	mov    0x10(%eax),%eax
  800e00:	89 04 24             	mov    %eax,(%esp)
  800e03:	e8 a5 9b 00 00       	call   80a9ad <sys_arch_sem_wait>
  /* maybe lwip_getsockopt_internal has changed err */
  err = data.err;
  800e08:	0f b6 45 e4          	movzbl -0x1c(%ebp),%eax

  sock_set_errno(sock, err);
  800e0c:	0f be d0             	movsbl %al,%edx
  800e0f:	89 53 10             	mov    %edx,0x10(%ebx)
  800e12:	89 15 e0 b1 b3 00    	mov    %edx,0xb3b1e0
  return err ? -1 : 0;
  800e18:	84 c0                	test   %al,%al
  800e1a:	74 07                	je     800e23 <lwip_getsockopt+0x187>
  800e1c:	b8 ff ff ff ff       	mov    $0xffffffff,%eax
  800e21:	eb 05                	jmp    800e28 <lwip_getsockopt+0x18c>
  800e23:	b8 00 00 00 00       	mov    $0x0,%eax
}
  800e28:	83 c4 3c             	add    $0x3c,%esp
  800e2b:	5b                   	pop    %ebx
  800e2c:	5e                   	pop    %esi
  800e2d:	5f                   	pop    %edi
  800e2e:	5d                   	pop    %ebp
  800e2f:	c3                   	ret    
  sys_arch_sem_wait(sock->conn->op_completed, 0);
  /* maybe lwip_getsockopt_internal has changed err */
  err = data.err;

  sock_set_errno(sock, err);
  return err ? -1 : 0;
  800e30:	b8 16 00 00 00       	mov    $0x16,%eax
  800e35:	e9 73 ff ff ff       	jmp    800dad <lwip_getsockopt+0x111>
  800e3a:	b8 61 00 00 00       	mov    $0x61,%eax
  800e3f:	e9 69 ff ff ff       	jmp    800dad <lwip_getsockopt+0x111>

00800e44 <lwip_setsockopt_internal>:
  return err ? -1 : 0;
}

static void
lwip_setsockopt_internal(void *arg)
{
  800e44:	55                   	push   %ebp
  800e45:	89 e5                	mov    %esp,%ebp
  800e47:	53                   	push   %ebx
  800e48:	83 ec 14             	sub    $0x14,%esp
  800e4b:	8b 45 08             	mov    0x8(%ebp),%eax
#endif /* LWIP_DEBUG */
  int level, optname;
  const void *optval;
  struct lwip_setgetsockopt_data *data;

  LWIP_ASSERT("arg != NULL", arg != NULL);
  800e4e:	85 c0                	test   %eax,%eax
  800e50:	75 1c                	jne    800e6e <lwip_setsockopt_internal+0x2a>
  800e52:	c7 44 24 08 fa 11 81 	movl   $0x8111fa,0x8(%esp)
  800e59:	00 
  800e5a:	c7 44 24 04 ae 06 00 	movl   $0x6ae,0x4(%esp)
  800e61:	00 
  800e62:	c7 04 24 06 12 81 00 	movl   $0x811206,(%esp)
  800e69:	e8 7e e3 00 00       	call   80f1ec <_panic>

  data = (struct lwip_setgetsockopt_data*)arg;
  sock = data->sock;
  800e6e:	8b 10                	mov    (%eax),%edx
#ifdef LWIP_DEBUG
  s = data->s;
#endif /* LWIP_DEBUG */
  level = data->level;
  optname = data->optname;
  800e70:	8b 48 0c             	mov    0xc(%eax),%ecx
  optval = data->optval;
  800e73:	8b 58 10             	mov    0x10(%eax),%ebx

  switch (level) {
  800e76:	8b 40 08             	mov    0x8(%eax),%eax
  800e79:	83 f8 06             	cmp    $0x6,%eax
  800e7c:	0f 84 86 00 00 00    	je     800f08 <lwip_setsockopt_internal+0xc4>
  800e82:	3d ff 0f 00 00       	cmp    $0xfff,%eax
  800e87:	74 0c                	je     800e95 <lwip_setsockopt_internal+0x51>
  800e89:	85 c0                	test   %eax,%eax
  800e8b:	74 59                	je     800ee6 <lwip_setsockopt_internal+0xa2>
  800e8d:	8d 76 00             	lea    0x0(%esi),%esi
  800e90:	e9 a7 00 00 00       	jmp    800f3c <lwip_setsockopt_internal+0xf8>

/* Level: SOL_SOCKET */
  case SOL_SOCKET:
    switch (optname) {
  800e95:	83 f9 20             	cmp    $0x20,%ecx
  800e98:	74 11                	je     800eab <lwip_setsockopt_internal+0x67>
  800e9a:	81 f9 0a 10 00 00    	cmp    $0x100a,%ecx
  800ea0:	74 29                	je     800ecb <lwip_setsockopt_internal+0x87>
  800ea2:	83 f9 08             	cmp    $0x8,%ecx
  800ea5:	0f 85 91 00 00 00    	jne    800f3c <lwip_setsockopt_internal+0xf8>
#if SO_REUSE
    case SO_REUSEADDR:
    case SO_REUSEPORT:
#endif /* SO_REUSE */
    /* UNIMPL case SO_USELOOPBACK: */
      if (*(int*)optval) {
  800eab:	83 3b 00             	cmpl   $0x0,(%ebx)
  800eae:	74 0e                	je     800ebe <lwip_setsockopt_internal+0x7a>
        sock->conn->pcb.ip->so_options |= optname;
  800eb0:	8b 02                	mov    (%edx),%eax
  800eb2:	8b 40 08             	mov    0x8(%eax),%eax
  800eb5:	66 09 48 08          	or     %cx,0x8(%eax)
  800eb9:	e9 7e 00 00 00       	jmp    800f3c <lwip_setsockopt_internal+0xf8>
      } else {
        sock->conn->pcb.ip->so_options &= ~optname;
  800ebe:	8b 02                	mov    (%edx),%eax
  800ec0:	8b 40 08             	mov    0x8(%eax),%eax
  800ec3:	f7 d1                	not    %ecx
  800ec5:	66 21 48 08          	and    %cx,0x8(%eax)
  800ec9:	eb 71                	jmp    800f3c <lwip_setsockopt_internal+0xf8>
      sock->conn->recv_bufsize = ( *(int*)optval );
      break;
#endif /* LWIP_SO_RCVBUF */
#if LWIP_UDP
    case SO_NO_CHECK:
      if (*(int*)optval) {
  800ecb:	83 3b 00             	cmpl   $0x0,(%ebx)
  800ece:	74 0b                	je     800edb <lwip_setsockopt_internal+0x97>
        udp_setflags(sock->conn->pcb.udp, udp_flags(sock->conn->pcb.udp) | UDP_FLAGS_NOCHKSUM);
  800ed0:	8b 02                	mov    (%edx),%eax
  800ed2:	8b 40 08             	mov    0x8(%eax),%eax
  800ed5:	80 48 10 01          	orb    $0x1,0x10(%eax)
  800ed9:	eb 61                	jmp    800f3c <lwip_setsockopt_internal+0xf8>
      } else {
        udp_setflags(sock->conn->pcb.udp, udp_flags(sock->conn->pcb.udp) & ~UDP_FLAGS_NOCHKSUM);
  800edb:	8b 02                	mov    (%edx),%eax
  800edd:	8b 40 08             	mov    0x8(%eax),%eax
  800ee0:	80 60 10 fe          	andb   $0xfe,0x10(%eax)
  800ee4:	eb 56                	jmp    800f3c <lwip_setsockopt_internal+0xf8>
    }  /* switch (optname) */
    break;

/* Level: IPPROTO_IP */
  case IPPROTO_IP:
    switch (optname) {
  800ee6:	83 f9 01             	cmp    $0x1,%ecx
  800ee9:	74 11                	je     800efc <lwip_setsockopt_internal+0xb8>
  800eeb:	83 f9 02             	cmp    $0x2,%ecx
  800eee:	75 4c                	jne    800f3c <lwip_setsockopt_internal+0xf8>
    case IP_TTL:
      sock->conn->pcb.ip->ttl = (u8_t)(*(int*)optval);
  800ef0:	8b 02                	mov    (%edx),%eax
  800ef2:	8b 40 08             	mov    0x8(%eax),%eax
  800ef5:	8b 0b                	mov    (%ebx),%ecx
  800ef7:	88 48 0b             	mov    %cl,0xb(%eax)
      LWIP_DEBUGF(SOCKETS_DEBUG, ("lwip_setsockopt(%d, IPPROTO_IP, IP_TTL, ..) -> %u\n",
                  s, sock->conn->pcb.ip->ttl));
      break;
  800efa:	eb 40                	jmp    800f3c <lwip_setsockopt_internal+0xf8>
    case IP_TOS:
      sock->conn->pcb.ip->tos = (u8_t)(*(int*)optval);
  800efc:	8b 02                	mov    (%edx),%eax
  800efe:	8b 40 08             	mov    0x8(%eax),%eax
  800f01:	8b 0b                	mov    (%ebx),%ecx
  800f03:	88 48 0a             	mov    %cl,0xa(%eax)
      LWIP_DEBUGF(SOCKETS_DEBUG, ("lwip_setsockopt(%d, IPPROTO_IP, IP_TOS, ..)-> %u\n",
  800f06:	eb 34                	jmp    800f3c <lwip_setsockopt_internal+0xf8>
    break;

#if LWIP_TCP
/* Level: IPPROTO_TCP */
  case IPPROTO_TCP:
    switch (optname) {
  800f08:	83 f9 01             	cmp    $0x1,%ecx
  800f0b:	74 07                	je     800f14 <lwip_setsockopt_internal+0xd0>
  800f0d:	83 f9 02             	cmp    $0x2,%ecx
  800f10:	75 2a                	jne    800f3c <lwip_setsockopt_internal+0xf8>
  800f12:	eb 1b                	jmp    800f2f <lwip_setsockopt_internal+0xeb>
    case TCP_NODELAY:
      if (*(int*)optval) {
  800f14:	83 3b 00             	cmpl   $0x0,(%ebx)
  800f17:	74 0b                	je     800f24 <lwip_setsockopt_internal+0xe0>
        sock->conn->pcb.tcp->flags |= TF_NODELAY;
  800f19:	8b 02                	mov    (%edx),%eax
  800f1b:	8b 40 08             	mov    0x8(%eax),%eax
  800f1e:	80 48 20 40          	orb    $0x40,0x20(%eax)
  800f22:	eb 18                	jmp    800f3c <lwip_setsockopt_internal+0xf8>
      } else {
        sock->conn->pcb.tcp->flags &= ~TF_NODELAY;
  800f24:	8b 02                	mov    (%edx),%eax
  800f26:	8b 40 08             	mov    0x8(%eax),%eax
  800f29:	80 60 20 bf          	andb   $0xbf,0x20(%eax)
  800f2d:	eb 0d                	jmp    800f3c <lwip_setsockopt_internal+0xf8>
      }
      LWIP_DEBUGF(SOCKETS_DEBUG, ("lwip_setsockopt(%d, IPPROTO_TCP, TCP_NODELAY) -> %s\n",
                  s, (*(int *)optval)?"on":"off") );
      break;
    case TCP_KEEPALIVE:
      sock->conn->pcb.tcp->keep_idle = (u32_t)(*(int*)optval);
  800f2f:	8b 02                	mov    (%edx),%eax
  800f31:	8b 40 08             	mov    0x8(%eax),%eax
  800f34:	8b 0b                	mov    (%ebx),%ecx
  800f36:	89 88 9c 00 00 00    	mov    %ecx,0x9c(%eax)
      break;
    }  /* switch (optname) */
    break;
#endif /* LWIP_UDP */
  }  /* switch (level) */
  sys_sem_signal(sock->conn->op_completed);
  800f3c:	8b 02                	mov    (%edx),%eax
  800f3e:	8b 40 10             	mov    0x10(%eax),%eax
  800f41:	89 04 24             	mov    %eax,(%esp)
  800f44:	e8 28 9d 00 00       	call   80ac71 <sys_sem_signal>
}
  800f49:	83 c4 14             	add    $0x14,%esp
  800f4c:	5b                   	pop    %ebx
  800f4d:	5d                   	pop    %ebp
  800f4e:	c3                   	ret    

00800f4f <lwip_getsockopt_internal>:
  return err ? -1 : 0;
}

static void
lwip_getsockopt_internal(void *arg)
{
  800f4f:	55                   	push   %ebp
  800f50:	89 e5                	mov    %esp,%ebp
  800f52:	53                   	push   %ebx
  800f53:	83 ec 14             	sub    $0x14,%esp
  800f56:	8b 45 08             	mov    0x8(%ebp),%eax
#endif /* LWIP_DEBUG */
  int level, optname;
  void *optval;
  struct lwip_setgetsockopt_data *data;

  LWIP_ASSERT("arg != NULL", arg != NULL);
  800f59:	85 c0                	test   %eax,%eax
  800f5b:	75 1c                	jne    800f79 <lwip_getsockopt_internal+0x2a>
  800f5d:	c7 44 24 08 fa 11 81 	movl   $0x8111fa,0x8(%esp)
  800f64:	00 
  800f65:	c7 44 24 04 38 05 00 	movl   $0x538,0x4(%esp)
  800f6c:	00 
  800f6d:	c7 04 24 06 12 81 00 	movl   $0x811206,(%esp)
  800f74:	e8 73 e2 00 00       	call   80f1ec <_panic>

  data = (struct lwip_setgetsockopt_data*)arg;
  sock = data->sock;
  800f79:	8b 10                	mov    (%eax),%edx
#ifdef LWIP_DEBUG
  s = data->s;
#endif /* LWIP_DEBUG */
  level = data->level;
  optname = data->optname;
  800f7b:	8b 48 0c             	mov    0xc(%eax),%ecx
  optval = data->optval;
  800f7e:	8b 58 10             	mov    0x10(%eax),%ebx

  switch (level) {
  800f81:	8b 40 08             	mov    0x8(%eax),%eax
  800f84:	83 f8 06             	cmp    $0x6,%eax
  800f87:	0f 84 0f 01 00 00    	je     80109c <lwip_getsockopt_internal+0x14d>
  800f8d:	3d ff 0f 00 00       	cmp    $0xfff,%eax
  800f92:	74 11                	je     800fa5 <lwip_getsockopt_internal+0x56>
  800f94:	85 c0                	test   %eax,%eax
  800f96:	0f 84 dc 00 00 00    	je     801078 <lwip_getsockopt_internal+0x129>
  800f9c:	8d 74 26 00          	lea    0x0(%esi,%eiz,1),%esi
  800fa0:	e9 20 01 00 00       	jmp    8010c5 <lwip_getsockopt_internal+0x176>
   
/* Level: SOL_SOCKET */
  case SOL_SOCKET:
    switch (optname) {
  800fa5:	83 f9 20             	cmp    $0x20,%ecx
  800fa8:	74 3a                	je     800fe4 <lwip_getsockopt_internal+0x95>
  800faa:	83 f9 20             	cmp    $0x20,%ecx
  800fad:	8d 76 00             	lea    0x0(%esi),%esi
  800fb0:	7f 10                	jg     800fc2 <lwip_getsockopt_internal+0x73>
  800fb2:	83 f9 02             	cmp    $0x2,%ecx
  800fb5:	74 2d                	je     800fe4 <lwip_getsockopt_internal+0x95>
  800fb7:	83 f9 08             	cmp    $0x8,%ecx
  800fba:	0f 85 05 01 00 00    	jne    8010c5 <lwip_getsockopt_internal+0x176>
  800fc0:	eb 22                	jmp    800fe4 <lwip_getsockopt_internal+0x95>
  800fc2:	81 f9 08 10 00 00    	cmp    $0x1008,%ecx
  800fc8:	74 2c                	je     800ff6 <lwip_getsockopt_internal+0xa7>
  800fca:	81 f9 0a 10 00 00    	cmp    $0x100a,%ecx
  800fd0:	0f 84 92 00 00 00    	je     801068 <lwip_getsockopt_internal+0x119>
  800fd6:	81 f9 07 10 00 00    	cmp    $0x1007,%ecx
  800fdc:	0f 85 e3 00 00 00    	jne    8010c5 <lwip_getsockopt_internal+0x176>
  800fe2:	eb 4f                	jmp    801033 <lwip_getsockopt_internal+0xe4>
#if SO_REUSE
    case SO_REUSEADDR:
    case SO_REUSEPORT:
#endif /* SO_REUSE */
    /*case SO_USELOOPBACK: UNIMPL */
      *(int*)optval = sock->conn->pcb.ip->so_options & optname;
  800fe4:	8b 02                	mov    (%edx),%eax
  800fe6:	8b 40 08             	mov    0x8(%eax),%eax
  800fe9:	0f b7 40 08          	movzwl 0x8(%eax),%eax
  800fed:	21 c1                	and    %eax,%ecx
  800fef:	89 0b                	mov    %ecx,(%ebx)
      LWIP_DEBUGF(SOCKETS_DEBUG, ("lwip_getsockopt(%d, SOL_SOCKET, optname=0x%x, ..) = %s\n",
                                  s, optname, (*(int*)optval?"on":"off")));
      break;
  800ff1:	e9 cf 00 00 00       	jmp    8010c5 <lwip_getsockopt_internal+0x176>

    case SO_TYPE:
      switch (NETCONNTYPE_GROUP(sock->conn->type)) {
  800ff6:	8b 02                	mov    (%edx),%eax
  800ff8:	8b 08                	mov    (%eax),%ecx
  800ffa:	89 c8                	mov    %ecx,%eax
  800ffc:	25 f0 00 00 00       	and    $0xf0,%eax
  801001:	83 f8 20             	cmp    $0x20,%eax
  801004:	74 22                	je     801028 <lwip_getsockopt_internal+0xd9>
  801006:	83 f8 40             	cmp    $0x40,%eax
  801009:	74 12                	je     80101d <lwip_getsockopt_internal+0xce>
        break;
      case NETCONN_UDP:
        *(int*)optval = SOCK_DGRAM;
        break;
      default: /* unrecognized socket type */
        *(int*)optval = sock->conn->type;
  80100b:	83 f8 10             	cmp    $0x10,%eax
  80100e:	b8 01 00 00 00       	mov    $0x1,%eax
  801013:	0f 44 c8             	cmove  %eax,%ecx
  801016:	89 0b                	mov    %ecx,(%ebx)
  801018:	e9 a8 00 00 00       	jmp    8010c5 <lwip_getsockopt_internal+0x176>
      break;

    case SO_TYPE:
      switch (NETCONNTYPE_GROUP(sock->conn->type)) {
      case NETCONN_RAW:
        *(int*)optval = SOCK_RAW;
  80101d:	c7 03 03 00 00 00    	movl   $0x3,(%ebx)
        break;
  801023:	e9 9d 00 00 00       	jmp    8010c5 <lwip_getsockopt_internal+0x176>
      case NETCONN_TCP:
        *(int*)optval = SOCK_STREAM;
        break;
      case NETCONN_UDP:
        *(int*)optval = SOCK_DGRAM;
  801028:	c7 03 02 00 00 00    	movl   $0x2,(%ebx)
        break;
  80102e:	e9 92 00 00 00       	jmp    8010c5 <lwip_getsockopt_internal+0x176>
      LWIP_DEBUGF(SOCKETS_DEBUG, ("lwip_getsockopt(%d, SOL_SOCKET, SO_TYPE) = %d\n",
                  s, *(int *)optval));
      break;

    case SO_ERROR:
      if (sock->err == 0) {
  801033:	83 7a 10 00          	cmpl   $0x0,0x10(%edx)
  801037:	75 21                	jne    80105a <lwip_getsockopt_internal+0x10b>
        sock_set_errno(sock, err_to_errno(sock->conn->err));
  801039:	8b 02                	mov    (%edx),%eax
  80103b:	0f be 48 0c          	movsbl 0xc(%eax),%ecx
  80103f:	f7 d9                	neg    %ecx
  801041:	b8 05 00 00 00       	mov    $0x5,%eax
  801046:	83 f9 0e             	cmp    $0xe,%ecx
  801049:	77 07                	ja     801052 <lwip_getsockopt_internal+0x103>
  80104b:	8b 04 8d e0 12 81 00 	mov    0x8112e0(,%ecx,4),%eax
  801052:	89 42 10             	mov    %eax,0x10(%edx)
  801055:	a3 e0 b1 b3 00       	mov    %eax,0xb3b1e0
      } 
      *(int *)optval = sock->err;
  80105a:	8b 42 10             	mov    0x10(%edx),%eax
  80105d:	89 03                	mov    %eax,(%ebx)
      sock->err = 0;
  80105f:	c7 42 10 00 00 00 00 	movl   $0x0,0x10(%edx)
      LWIP_DEBUGF(SOCKETS_DEBUG, ("lwip_getsockopt(%d, SOL_SOCKET, SO_ERROR) = %d\n",
                  s, *(int *)optval));
      break;
  801066:	eb 5d                	jmp    8010c5 <lwip_getsockopt_internal+0x176>
      *(int *)optval = sock->conn->recv_bufsize;
      break;
#endif /* LWIP_SO_RCVBUF */
#if LWIP_UDP
    case SO_NO_CHECK:
      *(int*)optval = (udp_flags(sock->conn->pcb.udp) & UDP_FLAGS_NOCHKSUM) ? 1 : 0;
  801068:	8b 02                	mov    (%edx),%eax
  80106a:	8b 40 08             	mov    0x8(%eax),%eax
  80106d:	0f b6 40 10          	movzbl 0x10(%eax),%eax
  801071:	83 e0 01             	and    $0x1,%eax
  801074:	89 03                	mov    %eax,(%ebx)
  801076:	eb 4d                	jmp    8010c5 <lwip_getsockopt_internal+0x176>
    }  /* switch (optname) */
    break;

/* Level: IPPROTO_IP */
  case IPPROTO_IP:
    switch (optname) {
  801078:	83 f9 01             	cmp    $0x1,%ecx
  80107b:	74 12                	je     80108f <lwip_getsockopt_internal+0x140>
  80107d:	83 f9 02             	cmp    $0x2,%ecx
  801080:	75 43                	jne    8010c5 <lwip_getsockopt_internal+0x176>
    case IP_TTL:
      *(int*)optval = sock->conn->pcb.ip->ttl;
  801082:	8b 02                	mov    (%edx),%eax
  801084:	8b 40 08             	mov    0x8(%eax),%eax
  801087:	0f b6 40 0b          	movzbl 0xb(%eax),%eax
  80108b:	89 03                	mov    %eax,(%ebx)
      LWIP_DEBUGF(SOCKETS_DEBUG, ("lwip_getsockopt(%d, IPPROTO_IP, IP_TTL) = %d\n",
                  s, *(int *)optval));
      break;
  80108d:	eb 36                	jmp    8010c5 <lwip_getsockopt_internal+0x176>
    case IP_TOS:
      *(int*)optval = sock->conn->pcb.ip->tos;
  80108f:	8b 02                	mov    (%edx),%eax
  801091:	8b 40 08             	mov    0x8(%eax),%eax
  801094:	0f b6 40 0a          	movzbl 0xa(%eax),%eax
  801098:	89 03                	mov    %eax,(%ebx)
      LWIP_DEBUGF(SOCKETS_DEBUG, ("lwip_getsockopt(%d, IPPROTO_IP, IP_TOS) = %d\n",
  80109a:	eb 29                	jmp    8010c5 <lwip_getsockopt_internal+0x176>
    break;

#if LWIP_TCP
/* Level: IPPROTO_TCP */
  case IPPROTO_TCP:
    switch (optname) {
  80109c:	83 f9 01             	cmp    $0x1,%ecx
  80109f:	74 07                	je     8010a8 <lwip_getsockopt_internal+0x159>
  8010a1:	83 f9 02             	cmp    $0x2,%ecx
  8010a4:	75 1f                	jne    8010c5 <lwip_getsockopt_internal+0x176>
  8010a6:	eb 10                	jmp    8010b8 <lwip_getsockopt_internal+0x169>
    case TCP_NODELAY:
      *(int*)optval = (sock->conn->pcb.tcp->flags & TF_NODELAY);
  8010a8:	8b 02                	mov    (%edx),%eax
  8010aa:	8b 40 08             	mov    0x8(%eax),%eax
  8010ad:	0f b6 40 20          	movzbl 0x20(%eax),%eax
  8010b1:	83 e0 40             	and    $0x40,%eax
  8010b4:	89 03                	mov    %eax,(%ebx)
      LWIP_DEBUGF(SOCKETS_DEBUG, ("lwip_getsockopt(%d, IPPROTO_TCP, TCP_NODELAY) = %s\n",
                  s, (*(int*)optval)?"on":"off") );
      break;
  8010b6:	eb 0d                	jmp    8010c5 <lwip_getsockopt_internal+0x176>
    case TCP_KEEPALIVE:
      *(int*)optval = (int)sock->conn->pcb.tcp->keep_idle;
  8010b8:	8b 02                	mov    (%edx),%eax
  8010ba:	8b 40 08             	mov    0x8(%eax),%eax
  8010bd:	8b 80 9c 00 00 00    	mov    0x9c(%eax),%eax
  8010c3:	89 03                	mov    %eax,(%ebx)
      break;
    }  /* switch (optname) */
    break;
#endif /* LWIP_UDP */
  } /* switch (level) */
  sys_sem_signal(sock->conn->op_completed);
  8010c5:	8b 02                	mov    (%edx),%eax
  8010c7:	8b 40 10             	mov    0x10(%eax),%eax
  8010ca:	89 04 24             	mov    %eax,(%esp)
  8010cd:	e8 9f 9b 00 00       	call   80ac71 <sys_sem_signal>
}
  8010d2:	83 c4 14             	add    $0x14,%esp
  8010d5:	5b                   	pop    %ebx
  8010d6:	5d                   	pop    %ebp
  8010d7:	c3                   	ret    

008010d8 <lwip_selscan>:
 * @param exceptset not yet implemented
 * @return number of sockets that had events (read+write)
 */
static int
lwip_selscan(int maxfdp1, fd_set *readset, fd_set *writeset, fd_set *exceptset)
{
  8010d8:	55                   	push   %ebp
  8010d9:	89 e5                	mov    %esp,%ebp
  8010db:	57                   	push   %edi
  8010dc:	56                   	push   %esi
  8010dd:	53                   	push   %ebx
  8010de:	83 ec 3c             	sub    $0x3c,%esp
  8010e1:	89 45 d4             	mov    %eax,-0x2c(%ebp)
  8010e4:	89 55 d0             	mov    %edx,-0x30(%ebp)
  8010e7:	89 4d cc             	mov    %ecx,-0x34(%ebp)
  int i, nready = 0;
  fd_set lreadset, lwriteset, lexceptset;
  struct lwip_socket *p_sock;
  
  FD_ZERO(&lreadset);
  8010ea:	c7 44 24 08 04 00 00 	movl   $0x4,0x8(%esp)
  8010f1:	00 
  8010f2:	c7 44 24 04 00 00 00 	movl   $0x0,0x4(%esp)
  8010f9:	00 
  8010fa:	8d 45 e4             	lea    -0x1c(%ebp),%eax
  8010fd:	89 04 24             	mov    %eax,(%esp)
  801100:	e8 4b e9 00 00       	call   80fa50 <memset>
  FD_ZERO(&lwriteset);
  801105:	c7 44 24 08 04 00 00 	movl   $0x4,0x8(%esp)
  80110c:	00 
  80110d:	c7 44 24 04 00 00 00 	movl   $0x0,0x4(%esp)
  801114:	00 
  801115:	8d 45 e0             	lea    -0x20(%ebp),%eax
  801118:	89 04 24             	mov    %eax,(%esp)
  80111b:	e8 30 e9 00 00       	call   80fa50 <memset>
  FD_ZERO(&lexceptset);
  801120:	c7 44 24 08 04 00 00 	movl   $0x4,0x8(%esp)
  801127:	00 
  801128:	c7 44 24 04 00 00 00 	movl   $0x0,0x4(%esp)
  80112f:	00 
  801130:	8d 45 dc             	lea    -0x24(%ebp),%eax
  801133:	89 04 24             	mov    %eax,(%esp)
  801136:	e8 15 e9 00 00       	call   80fa50 <memset>
  80113b:	c7 45 c8 00 00 00 00 	movl   $0x0,-0x38(%ebp)
  801142:	bb 00 00 00 00       	mov    $0x0,%ebx
  
  /* Go through each socket in each list to count number of sockets which
  currently match */
  for(i = 0; i < maxfdp1; i++) {
  801147:	eb 77                	jmp    8011c0 <lwip_selscan+0xe8>
    if (FD_ISSET(i, readset)) {
  801149:	8d 73 07             	lea    0x7(%ebx),%esi
  80114c:	85 db                	test   %ebx,%ebx
  80114e:	0f 49 f3             	cmovns %ebx,%esi
  801151:	c1 fe 03             	sar    $0x3,%esi
  801154:	89 df                	mov    %ebx,%edi
  801156:	83 e7 07             	and    $0x7,%edi
  801159:	8b 55 d0             	mov    -0x30(%ebp),%edx
  80115c:	0f b6 04 32          	movzbl (%edx,%esi,1),%eax
  801160:	0f a3 f8             	bt     %edi,%eax
  801163:	73 29                	jae    80118e <lwip_selscan+0xb6>
      /* See if netconn of this socket is ready for read */
      p_sock = get_socket(i);
  801165:	89 d8                	mov    %ebx,%eax
  801167:	e8 b4 f8 ff ff       	call   800a20 <get_socket>
      if (p_sock && (p_sock->lastdata || p_sock->rcvevent)) {
  80116c:	85 c0                	test   %eax,%eax
  80116e:	74 1e                	je     80118e <lwip_selscan+0xb6>
  801170:	83 78 04 00          	cmpl   $0x0,0x4(%eax)
  801174:	75 07                	jne    80117d <lwip_selscan+0xa5>
  801176:	66 83 78 0a 00       	cmpw   $0x0,0xa(%eax)
  80117b:	74 11                	je     80118e <lwip_selscan+0xb6>
        FD_SET(i, &lreadset);
  80117d:	b8 01 00 00 00       	mov    $0x1,%eax
  801182:	89 f9                	mov    %edi,%ecx
  801184:	d3 e0                	shl    %cl,%eax
  801186:	08 44 35 e4          	or     %al,-0x1c(%ebp,%esi,1)
        LWIP_DEBUGF(SOCKETS_DEBUG, ("lwip_selscan: fd=%d ready for reading\n", i));
        nready++;
  80118a:	83 45 c8 01          	addl   $0x1,-0x38(%ebp)
      }
    }
    if (FD_ISSET(i, writeset)) {
  80118e:	8b 55 cc             	mov    -0x34(%ebp),%edx
  801191:	0f b6 04 32          	movzbl (%edx,%esi,1),%eax
  801195:	0f a3 f8             	bt     %edi,%eax
  801198:	73 23                	jae    8011bd <lwip_selscan+0xe5>
      /* See if netconn of this socket is ready for write */
      p_sock = get_socket(i);
  80119a:	89 d8                	mov    %ebx,%eax
  80119c:	e8 7f f8 ff ff       	call   800a20 <get_socket>
      if (p_sock && p_sock->sendevent) {
  8011a1:	85 c0                	test   %eax,%eax
  8011a3:	74 18                	je     8011bd <lwip_selscan+0xe5>
  8011a5:	66 83 78 0c 00       	cmpw   $0x0,0xc(%eax)
  8011aa:	74 11                	je     8011bd <lwip_selscan+0xe5>
        FD_SET(i, &lwriteset);
  8011ac:	b8 01 00 00 00       	mov    $0x1,%eax
  8011b1:	89 f9                	mov    %edi,%ecx
  8011b3:	d3 e0                	shl    %cl,%eax
  8011b5:	08 44 35 e0          	or     %al,-0x20(%ebp,%esi,1)
        LWIP_DEBUGF(SOCKETS_DEBUG, ("lwip_selscan: fd=%d ready for writing\n", i));
        nready++;
  8011b9:	83 45 c8 01          	addl   $0x1,-0x38(%ebp)
  FD_ZERO(&lwriteset);
  FD_ZERO(&lexceptset);
  
  /* Go through each socket in each list to count number of sockets which
  currently match */
  for(i = 0; i < maxfdp1; i++) {
  8011bd:	83 c3 01             	add    $0x1,%ebx
  8011c0:	3b 5d d4             	cmp    -0x2c(%ebp),%ebx
  8011c3:	7c 84                	jl     801149 <lwip_selscan+0x71>
        LWIP_DEBUGF(SOCKETS_DEBUG, ("lwip_selscan: fd=%d ready for writing\n", i));
        nready++;
      }
    }
  }
  *readset = lreadset;
  8011c5:	8b 45 e4             	mov    -0x1c(%ebp),%eax
  8011c8:	8b 55 d0             	mov    -0x30(%ebp),%edx
  8011cb:	89 02                	mov    %eax,(%edx)
  *writeset = lwriteset;
  8011cd:	8b 45 e0             	mov    -0x20(%ebp),%eax
  8011d0:	8b 4d cc             	mov    -0x34(%ebp),%ecx
  8011d3:	89 01                	mov    %eax,(%ecx)
  FD_ZERO(exceptset);
  8011d5:	c7 44 24 08 04 00 00 	movl   $0x4,0x8(%esp)
  8011dc:	00 
  8011dd:	c7 44 24 04 00 00 00 	movl   $0x0,0x4(%esp)
  8011e4:	00 
  8011e5:	8b 45 08             	mov    0x8(%ebp),%eax
  8011e8:	89 04 24             	mov    %eax,(%esp)
  8011eb:	e8 60 e8 00 00       	call   80fa50 <memset>
  
  return nready;
}
  8011f0:	8b 45 c8             	mov    -0x38(%ebp),%eax
  8011f3:	83 c4 3c             	add    $0x3c,%esp
  8011f6:	5b                   	pop    %ebx
  8011f7:	5e                   	pop    %esi
  8011f8:	5f                   	pop    %edi
  8011f9:	5d                   	pop    %ebp
  8011fa:	c3                   	ret    

008011fb <lwip_getaddrname>:
  return lwip_close(s); /* XXX temporary hack until proper implementation */
}

static int
lwip_getaddrname(int s, struct sockaddr *name, socklen_t *namelen, u8_t local)
{
  8011fb:	55                   	push   %ebp
  8011fc:	89 e5                	mov    %esp,%ebp
  8011fe:	83 ec 58             	sub    $0x58,%esp
  801201:	89 5d f4             	mov    %ebx,-0xc(%ebp)
  801204:	89 75 f8             	mov    %esi,-0x8(%ebp)
  801207:	89 7d fc             	mov    %edi,-0x4(%ebp)
  80120a:	89 d7                	mov    %edx,%edi
  80120c:	89 ce                	mov    %ecx,%esi
  80120e:	0f b6 55 08          	movzbl 0x8(%ebp),%edx
  801212:	88 55 c7             	mov    %dl,-0x39(%ebp)
  struct lwip_socket *sock;
  struct sockaddr_in sin;
  struct ip_addr naddr;

  sock = get_socket(s);
  801215:	e8 06 f8 ff ff       	call   800a20 <get_socket>
  80121a:	89 c3                	mov    %eax,%ebx
  if (!sock)
  80121c:	b8 ff ff ff ff       	mov    $0xffffffff,%eax
  801221:	85 db                	test   %ebx,%ebx
  801223:	0f 84 8f 00 00 00    	je     8012b8 <lwip_getaddrname+0xbd>
    return -1;

  memset(&sin, 0, sizeof(sin));
  801229:	c7 44 24 08 10 00 00 	movl   $0x10,0x8(%esp)
  801230:	00 
  801231:	c7 44 24 04 00 00 00 	movl   $0x0,0x4(%esp)
  801238:	00 
  801239:	8d 45 d8             	lea    -0x28(%ebp),%eax
  80123c:	89 04 24             	mov    %eax,(%esp)
  80123f:	e8 0c e8 00 00       	call   80fa50 <memset>
  sin.sin_len = sizeof(sin);
  801244:	c6 45 d8 10          	movb   $0x10,-0x28(%ebp)
  sin.sin_family = AF_INET;
  801248:	c6 45 d9 02          	movb   $0x2,-0x27(%ebp)

  /* get the IP address and port */
  netconn_getaddr(sock->conn, &naddr, &sin.sin_port, local);
  80124c:	0f b6 45 c7          	movzbl -0x39(%ebp),%eax
  801250:	89 44 24 0c          	mov    %eax,0xc(%esp)
  801254:	8d 45 da             	lea    -0x26(%ebp),%eax
  801257:	89 44 24 08          	mov    %eax,0x8(%esp)
  80125b:	8d 45 d4             	lea    -0x2c(%ebp),%eax
  80125e:	89 44 24 04          	mov    %eax,0x4(%esp)
  801262:	8b 03                	mov    (%ebx),%eax
  801264:	89 04 24             	mov    %eax,(%esp)
  801267:	e8 73 a6 00 00       	call   80b8df <netconn_getaddr>

  LWIP_DEBUGF(SOCKETS_DEBUG, ("lwip_getaddrname(%d, addr=", s));
  //ip_addr_debug_print(SOCKETS_DEBUG, &naddr);
  LWIP_DEBUGF(SOCKETS_DEBUG, (" port=%d)\n", sin.sin_port));

  sin.sin_port = htons(sin.sin_port);
  80126c:	0f b7 45 da          	movzwl -0x26(%ebp),%eax
  801270:	89 04 24             	mov    %eax,(%esp)
  801273:	e8 e7 6b 00 00       	call   807e5f <htons>
  801278:	66 89 45 da          	mov    %ax,-0x26(%ebp)
  sin.sin_addr.s_addr = naddr.addr;
  80127c:	8b 45 d4             	mov    -0x2c(%ebp),%eax
  80127f:	89 45 dc             	mov    %eax,-0x24(%ebp)

  if (*namelen > sizeof(sin))
  801282:	83 3e 10             	cmpl   $0x10,(%esi)
  801285:	76 06                	jbe    80128d <lwip_getaddrname+0x92>
    *namelen = sizeof(sin);
  801287:	c7 06 10 00 00 00    	movl   $0x10,(%esi)

  SMEMCPY(name, &sin, *namelen);
  80128d:	8b 06                	mov    (%esi),%eax
  80128f:	89 44 24 08          	mov    %eax,0x8(%esp)
  801293:	8d 45 d8             	lea    -0x28(%ebp),%eax
  801296:	89 44 24 04          	mov    %eax,0x4(%esp)
  80129a:	89 3c 24             	mov    %edi,(%esp)
  80129d:	e8 89 e8 00 00       	call   80fb2b <memcpy>
  sock_set_errno(sock, 0);
  8012a2:	c7 43 10 00 00 00 00 	movl   $0x0,0x10(%ebx)
  8012a9:	c7 05 e0 b1 b3 00 00 	movl   $0x0,0xb3b1e0
  8012b0:	00 00 00 
  8012b3:	b8 00 00 00 00       	mov    $0x0,%eax
  return 0;
}
  8012b8:	8b 5d f4             	mov    -0xc(%ebp),%ebx
  8012bb:	8b 75 f8             	mov    -0x8(%ebp),%esi
  8012be:	8b 7d fc             	mov    -0x4(%ebp),%edi
  8012c1:	89 ec                	mov    %ebp,%esp
  8012c3:	5d                   	pop    %ebp
  8012c4:	c3                   	ret    

008012c5 <lwip_getsockname>:
  return lwip_getaddrname(s, name, namelen, 0);
}

int
lwip_getsockname(int s, struct sockaddr *name, socklen_t *namelen)
{
  8012c5:	55                   	push   %ebp
  8012c6:	89 e5                	mov    %esp,%ebp
  8012c8:	83 ec 18             	sub    $0x18,%esp
  return lwip_getaddrname(s, name, namelen, 1);
  8012cb:	c7 04 24 01 00 00 00 	movl   $0x1,(%esp)
  8012d2:	8b 4d 10             	mov    0x10(%ebp),%ecx
  8012d5:	8b 55 0c             	mov    0xc(%ebp),%edx
  8012d8:	8b 45 08             	mov    0x8(%ebp),%eax
  8012db:	e8 1b ff ff ff       	call   8011fb <lwip_getaddrname>
}
  8012e0:	c9                   	leave  
  8012e1:	c3                   	ret    

008012e2 <lwip_getpeername>:
  return 0;
}

int
lwip_getpeername(int s, struct sockaddr *name, socklen_t *namelen)
{
  8012e2:	55                   	push   %ebp
  8012e3:	89 e5                	mov    %esp,%ebp
  8012e5:	83 ec 18             	sub    $0x18,%esp
  return lwip_getaddrname(s, name, namelen, 0);
  8012e8:	c7 04 24 00 00 00 00 	movl   $0x0,(%esp)
  8012ef:	8b 4d 10             	mov    0x10(%ebp),%ecx
  8012f2:	8b 55 0c             	mov    0xc(%ebp),%edx
  8012f5:	8b 45 08             	mov    0x8(%ebp),%eax
  8012f8:	e8 fe fe ff ff       	call   8011fb <lwip_getaddrname>
}
  8012fd:	c9                   	leave  
  8012fe:	c3                   	ret    

008012ff <alloc_socket>:
 * @param newconn the netconn for which to allocate a socket
 * @return the index of the new socket; -1 on error
 */
static int
alloc_socket(struct netconn *newconn)
{
  8012ff:	55                   	push   %ebp
  801300:	89 e5                	mov    %esp,%ebp
  801302:	56                   	push   %esi
  801303:	53                   	push   %ebx
  801304:	83 ec 10             	sub    $0x10,%esp
  801307:	89 c6                	mov    %eax,%esi
  int i;

  /* Protect socket array */
  sys_sem_wait(socksem);
  801309:	a1 e4 52 81 00       	mov    0x8152e4,%eax
  80130e:	89 04 24             	mov    %eax,(%esp)
  801311:	e8 c3 45 00 00       	call   8058d9 <sys_sem_wait>
  801316:	b8 60 50 81 00       	mov    $0x815060,%eax
  80131b:	bb 00 00 00 00       	mov    $0x0,%ebx

  /* allocate a new socket identifier */
  for (i = 0; i < NUM_SOCKETS; ++i) {
    if (!sockets[i].conn) {
  801320:	83 38 00             	cmpl   $0x0,(%eax)
  801323:	75 50                	jne    801375 <alloc_socket+0x76>
      sockets[i].conn       = newconn;
  801325:	ba 60 50 81 00       	mov    $0x815060,%edx
  80132a:	8d 04 9d 00 00 00 00 	lea    0x0(,%ebx,4),%eax
  801331:	8d 0c 18             	lea    (%eax,%ebx,1),%ecx
  801334:	89 34 8a             	mov    %esi,(%edx,%ecx,4)
      sockets[i].lastdata   = NULL;
  801337:	c7 44 8a 04 00 00 00 	movl   $0x0,0x4(%edx,%ecx,4)
  80133e:	00 
      sockets[i].lastoffset = 0;
  80133f:	66 c7 44 8a 08 00 00 	movw   $0x0,0x8(%edx,%ecx,4)
      sockets[i].rcvevent   = 0;
  801346:	66 c7 44 8a 0a 00 00 	movw   $0x0,0xa(%edx,%ecx,4)
      sockets[i].sendevent  = 1; /* TCP send buf is empty */
  80134d:	66 c7 44 8a 0c 01 00 	movw   $0x1,0xc(%edx,%ecx,4)
      sockets[i].flags      = 0;
  801354:	66 c7 44 8a 0e 00 00 	movw   $0x0,0xe(%edx,%ecx,4)
      sockets[i].err        = 0;
  80135b:	c7 04 8d 70 50 81 00 	movl   $0x0,0x815070(,%ecx,4)
  801362:	00 00 00 00 
      sys_sem_signal(socksem);
  801366:	a1 e4 52 81 00       	mov    0x8152e4,%eax
  80136b:	89 04 24             	mov    %eax,(%esp)
  80136e:	e8 fe 98 00 00       	call   80ac71 <sys_sem_signal>
      return i;
  801373:	eb 1d                	jmp    801392 <alloc_socket+0x93>

  /* Protect socket array */
  sys_sem_wait(socksem);

  /* allocate a new socket identifier */
  for (i = 0; i < NUM_SOCKETS; ++i) {
  801375:	83 c3 01             	add    $0x1,%ebx
  801378:	83 c0 14             	add    $0x14,%eax
  80137b:	83 fb 20             	cmp    $0x20,%ebx
  80137e:	75 a0                	jne    801320 <alloc_socket+0x21>
      sockets[i].err        = 0;
      sys_sem_signal(socksem);
      return i;
    }
  }
  sys_sem_signal(socksem);
  801380:	a1 e4 52 81 00       	mov    0x8152e4,%eax
  801385:	89 04 24             	mov    %eax,(%esp)
  801388:	e8 e4 98 00 00       	call   80ac71 <sys_sem_signal>
  80138d:	bb ff ff ff ff       	mov    $0xffffffff,%ebx
  return -1;
}
  801392:	89 d8                	mov    %ebx,%eax
  801394:	83 c4 10             	add    $0x10,%esp
  801397:	5b                   	pop    %ebx
  801398:	5e                   	pop    %esi
  801399:	5d                   	pop    %ebp
  80139a:	c3                   	ret    

0080139b <event_callback>:
 * Callback registered in the netconn layer for each socket-netconn.
 * Processes recvevent (data available) and wakes up tasks waiting for select.
 */
static void
event_callback(struct netconn *conn, enum netconn_evt evt, u16_t len)
{
  80139b:	55                   	push   %ebp
  80139c:	89 e5                	mov    %esp,%ebp
  80139e:	57                   	push   %edi
  80139f:	56                   	push   %esi
  8013a0:	53                   	push   %ebx
  8013a1:	83 ec 2c             	sub    $0x2c,%esp
  8013a4:	8b 75 08             	mov    0x8(%ebp),%esi
  8013a7:	8b 7d 0c             	mov    0xc(%ebp),%edi
  struct lwip_select_cb *scb;

  LWIP_UNUSED_ARG(len);

  /* Get socket */
  if (conn) {
  8013aa:	85 f6                	test   %esi,%esi
  8013ac:	0f 84 68 01 00 00    	je     80151a <event_callback+0x17f>
    s = conn->socket;
  8013b2:	8b 5e 1c             	mov    0x1c(%esi),%ebx
    if (s < 0) {
  8013b5:	85 db                	test   %ebx,%ebx
  8013b7:	79 3d                	jns    8013f6 <event_callback+0x5b>
      /* Data comes in right away after an accept, even though
       * the server task might not have created a new socket yet.
       * Just count down (or up) if that's the case and we
       * will use the data later. Note that only receive events
       * can happen before the new socket is set up. */
      sys_sem_wait(socksem);
  8013b9:	a1 e4 52 81 00       	mov    0x8152e4,%eax
  8013be:	89 04 24             	mov    %eax,(%esp)
  8013c1:	e8 13 45 00 00       	call   8058d9 <sys_sem_wait>
      if (conn->socket < 0) {
  8013c6:	8b 46 1c             	mov    0x1c(%esi),%eax
  8013c9:	85 c0                	test   %eax,%eax
  8013cb:	79 1c                	jns    8013e9 <event_callback+0x4e>
        if (evt == NETCONN_EVT_RCVPLUS) {
  8013cd:	85 ff                	test   %edi,%edi
  8013cf:	75 06                	jne    8013d7 <event_callback+0x3c>
          conn->socket--;
  8013d1:	83 e8 01             	sub    $0x1,%eax
  8013d4:	89 46 1c             	mov    %eax,0x1c(%esi)
        }
        sys_sem_signal(socksem);
  8013d7:	a1 e4 52 81 00       	mov    0x8152e4,%eax
  8013dc:	89 04 24             	mov    %eax,(%esp)
  8013df:	e8 8d 98 00 00       	call   80ac71 <sys_sem_signal>
        return;
  8013e4:	e9 31 01 00 00       	jmp    80151a <event_callback+0x17f>
      }
      sys_sem_signal(socksem);
  8013e9:	a1 e4 52 81 00       	mov    0x8152e4,%eax
  8013ee:	89 04 24             	mov    %eax,(%esp)
  8013f1:	e8 7b 98 00 00       	call   80ac71 <sys_sem_signal>
    }

    sock = get_socket(s);
  8013f6:	89 d8                	mov    %ebx,%eax
  8013f8:	e8 23 f6 ff ff       	call   800a20 <get_socket>
  8013fd:	89 45 e4             	mov    %eax,-0x1c(%ebp)
    if (!sock) {
  801400:	85 c0                	test   %eax,%eax
  801402:	0f 84 12 01 00 00    	je     80151a <event_callback+0x17f>
    }
  } else {
    return;
  }

  sys_sem_wait(selectsem);
  801408:	a1 e8 52 81 00       	mov    0x8152e8,%eax
  80140d:	89 04 24             	mov    %eax,(%esp)
  801410:	e8 c4 44 00 00       	call   8058d9 <sys_sem_wait>
  /* Set event as required */
  switch (evt) {
  801415:	83 ff 01             	cmp    $0x1,%edi
  801418:	74 1b                	je     801435 <event_callback+0x9a>
  80141a:	83 ff 01             	cmp    $0x1,%edi
  80141d:	72 0c                	jb     80142b <event_callback+0x90>
  80141f:	83 ff 02             	cmp    $0x2,%edi
  801422:	74 1b                	je     80143f <event_callback+0xa4>
  801424:	83 ff 03             	cmp    $0x3,%edi
  801427:	75 2c                	jne    801455 <event_callback+0xba>
  801429:	eb 1f                	jmp    80144a <event_callback+0xaf>
    case NETCONN_EVT_RCVPLUS:
      sock->rcvevent++;
  80142b:	8b 45 e4             	mov    -0x1c(%ebp),%eax
  80142e:	66 83 40 0a 01       	addw   $0x1,0xa(%eax)
      break;
  801433:	eb 3c                	jmp    801471 <event_callback+0xd6>
    case NETCONN_EVT_RCVMINUS:
      sock->rcvevent--;
  801435:	8b 45 e4             	mov    -0x1c(%ebp),%eax
  801438:	66 83 68 0a 01       	subw   $0x1,0xa(%eax)
      break;
  80143d:	eb 32                	jmp    801471 <event_callback+0xd6>
    case NETCONN_EVT_SENDPLUS:
      sock->sendevent = 1;
  80143f:	8b 45 e4             	mov    -0x1c(%ebp),%eax
  801442:	66 c7 40 0c 01 00    	movw   $0x1,0xc(%eax)
      break;
  801448:	eb 27                	jmp    801471 <event_callback+0xd6>
    case NETCONN_EVT_SENDMINUS:
      sock->sendevent = 0;
  80144a:	8b 45 e4             	mov    -0x1c(%ebp),%eax
  80144d:	66 c7 40 0c 00 00    	movw   $0x0,0xc(%eax)
      break;
  801453:	eb 1c                	jmp    801471 <event_callback+0xd6>
    default:
      LWIP_ASSERT("unknown event", 0);
  801455:	c7 44 24 08 1d 12 81 	movl   $0x81121d,0x8(%esp)
  80145c:	00 
  80145d:	c7 44 24 04 17 04 00 	movl   $0x417,0x4(%esp)
  801464:	00 
  801465:	c7 04 24 06 12 81 00 	movl   $0x811206,(%esp)
  80146c:	e8 7b dd 00 00       	call   80f1ec <_panic>
      break;
  }
  sys_sem_signal(selectsem);
  801471:	a1 e8 52 81 00       	mov    0x8152e8,%eax
  801476:	89 04 24             	mov    %eax,(%esp)
  801479:	e8 f3 97 00 00       	call   80ac71 <sys_sem_signal>
  while (1) {
    sys_sem_wait(selectsem);
    for (scb = select_cb_list; scb; scb = scb->next) {
      if (scb->sem_signalled == 0) {
        /* Test this select call for our socket */
        if (scb->readset && FD_ISSET(s, scb->readset))
  80147e:	8d 73 07             	lea    0x7(%ebx),%esi
  801481:	85 db                	test   %ebx,%ebx
  801483:	0f 49 f3             	cmovns %ebx,%esi
  801486:	c1 fe 03             	sar    $0x3,%esi
  801489:	89 d9                	mov    %ebx,%ecx
  80148b:	83 e1 07             	and    $0x7,%ecx
  80148e:	b8 01 00 00 00       	mov    $0x1,%eax
  801493:	89 c7                	mov    %eax,%edi
  801495:	d3 e7                	shl    %cl,%edi
     signalling for the select. This means we need to go through the list
     multiple times ONLY IF a select was actually waiting. We go through
     the list the number of waiting select calls + 1. This list is
     expected to be small. */
  while (1) {
    sys_sem_wait(selectsem);
  801497:	a1 e8 52 81 00       	mov    0x8152e8,%eax
  80149c:	89 04 24             	mov    %eax,(%esp)
  80149f:	e8 35 44 00 00       	call   8058d9 <sys_sem_wait>
    for (scb = select_cb_list; scb; scb = scb->next) {
  8014a4:	8b 1d e0 52 81 00    	mov    0x8152e0,%ebx
  8014aa:	eb 3a                	jmp    8014e6 <event_callback+0x14b>
      if (scb->sem_signalled == 0) {
  8014ac:	83 7b 10 00          	cmpl   $0x0,0x10(%ebx)
  8014b0:	75 32                	jne    8014e4 <event_callback+0x149>
        /* Test this select call for our socket */
        if (scb->readset && FD_ISSET(s, scb->readset))
  8014b2:	8b 43 04             	mov    0x4(%ebx),%eax
  8014b5:	85 c0                	test   %eax,%eax
  8014b7:	74 12                	je     8014cb <event_callback+0x130>
  8014b9:	0f b6 04 30          	movzbl (%eax,%esi,1),%eax
  8014bd:	85 f8                	test   %edi,%eax
  8014bf:	74 0a                	je     8014cb <event_callback+0x130>
          if (sock->rcvevent)
  8014c1:	8b 45 e4             	mov    -0x1c(%ebp),%eax
  8014c4:	66 83 78 0a 00       	cmpw   $0x0,0xa(%eax)
  8014c9:	75 21                	jne    8014ec <event_callback+0x151>
            break;
        if (scb->writeset && FD_ISSET(s, scb->writeset))
  8014cb:	8b 43 08             	mov    0x8(%ebx),%eax
  8014ce:	85 c0                	test   %eax,%eax
  8014d0:	74 12                	je     8014e4 <event_callback+0x149>
  8014d2:	0f b6 04 30          	movzbl (%eax,%esi,1),%eax
  8014d6:	85 f8                	test   %edi,%eax
  8014d8:	74 0a                	je     8014e4 <event_callback+0x149>
          if (sock->sendevent)
  8014da:	8b 45 e4             	mov    -0x1c(%ebp),%eax
  8014dd:	66 83 78 0c 00       	cmpw   $0x0,0xc(%eax)
  8014e2:	75 08                	jne    8014ec <event_callback+0x151>
     multiple times ONLY IF a select was actually waiting. We go through
     the list the number of waiting select calls + 1. This list is
     expected to be small. */
  while (1) {
    sys_sem_wait(selectsem);
    for (scb = select_cb_list; scb; scb = scb->next) {
  8014e4:	8b 1b                	mov    (%ebx),%ebx
  8014e6:	85 db                	test   %ebx,%ebx
  8014e8:	75 c2                	jne    8014ac <event_callback+0x111>
  8014ea:	eb 21                	jmp    80150d <event_callback+0x172>
          if (sock->sendevent)
            break;
      }
    }
    if (scb) {
      scb->sem_signalled = 1;
  8014ec:	c7 43 10 01 00 00 00 	movl   $0x1,0x10(%ebx)
      sys_sem_signal(selectsem);
  8014f3:	a1 e8 52 81 00       	mov    0x8152e8,%eax
  8014f8:	89 04 24             	mov    %eax,(%esp)
  8014fb:	e8 71 97 00 00       	call   80ac71 <sys_sem_signal>
      sys_sem_signal(scb->sem);
  801500:	8b 43 14             	mov    0x14(%ebx),%eax
  801503:	89 04 24             	mov    %eax,(%esp)
  801506:	e8 66 97 00 00       	call   80ac71 <sys_sem_signal>
    } else {
      sys_sem_signal(selectsem);
      break;
    }
  }
  80150b:	eb 8a                	jmp    801497 <event_callback+0xfc>
    if (scb) {
      scb->sem_signalled = 1;
      sys_sem_signal(selectsem);
      sys_sem_signal(scb->sem);
    } else {
      sys_sem_signal(selectsem);
  80150d:	a1 e8 52 81 00       	mov    0x8152e8,%eax
  801512:	89 04 24             	mov    %eax,(%esp)
  801515:	e8 57 97 00 00       	call   80ac71 <sys_sem_signal>
      break;
    }
  }
}
  80151a:	83 c4 2c             	add    $0x2c,%esp
  80151d:	5b                   	pop    %ebx
  80151e:	5e                   	pop    %esi
  80151f:	5f                   	pop    %edi
  801520:	5d                   	pop    %ebp
  801521:	c3                   	ret    

00801522 <lwip_socket_init>:
 * Initialize this module. This function has to be called before any other
 * functions in this module!
 */
void
lwip_socket_init(void)
{
  801522:	55                   	push   %ebp
  801523:	89 e5                	mov    %esp,%ebp
  801525:	83 ec 18             	sub    $0x18,%esp
  socksem   = sys_sem_new(1);
  801528:	c7 04 24 01 00 00 00 	movl   $0x1,(%esp)
  80152f:	e8 9b 95 00 00       	call   80aacf <sys_sem_new>
  801534:	a3 e4 52 81 00       	mov    %eax,0x8152e4
  selectsem = sys_sem_new(1);
  801539:	c7 04 24 01 00 00 00 	movl   $0x1,(%esp)
  801540:	e8 8a 95 00 00       	call   80aacf <sys_sem_new>
  801545:	a3 e8 52 81 00       	mov    %eax,0x8152e8
}
  80154a:	c9                   	leave  
  80154b:	c3                   	ret    

0080154c <lwip_select>:
 * Processing exceptset is not yet implemented.
 */
int
lwip_select(int maxfdp1, fd_set *readset, fd_set *writeset, fd_set *exceptset,
               struct timeval *timeout)
{
  80154c:	55                   	push   %ebp
  80154d:	89 e5                	mov    %esp,%ebp
  80154f:	57                   	push   %edi
  801550:	56                   	push   %esi
  801551:	53                   	push   %ebx
  801552:	83 ec 5c             	sub    $0x5c,%esp
  801555:	8b 7d 0c             	mov    0xc(%ebp),%edi
  801558:	8b 75 10             	mov    0x10(%ebp),%esi
  80155b:	8b 5d 14             	mov    0x14(%ebp),%ebx

  LWIP_DEBUGF(SOCKETS_DEBUG, ("lwip_select(%d, %p, %p, %p, tvsec=%ld tvusec=%ld)\n",
                  maxfdp1, (void *)readset, (void *) writeset, (void *) exceptset,
                  timeout ? timeout->tv_sec : -1L, timeout ? timeout->tv_usec : -1L));

  select_cb.next = 0;
  80155e:	c7 45 c4 00 00 00 00 	movl   $0x0,-0x3c(%ebp)
  select_cb.readset = readset;
  801565:	89 7d c8             	mov    %edi,-0x38(%ebp)
  select_cb.writeset = writeset;
  801568:	89 75 cc             	mov    %esi,-0x34(%ebp)
  select_cb.exceptset = exceptset;
  80156b:	89 5d d0             	mov    %ebx,-0x30(%ebp)
  select_cb.sem_signalled = 0;
  80156e:	c7 45 d4 00 00 00 00 	movl   $0x0,-0x2c(%ebp)

  /* Protect ourselves searching through the list */
  sys_sem_wait(selectsem);
  801575:	a1 e8 52 81 00       	mov    0x8152e8,%eax
  80157a:	89 04 24             	mov    %eax,(%esp)
  80157d:	e8 57 43 00 00       	call   8058d9 <sys_sem_wait>

  if (readset)
  801582:	85 ff                	test   %edi,%edi
  801584:	74 07                	je     80158d <lwip_select+0x41>
    lreadset = *readset;
  801586:	8b 07                	mov    (%edi),%eax
  801588:	89 45 e4             	mov    %eax,-0x1c(%ebp)
  80158b:	eb 1b                	jmp    8015a8 <lwip_select+0x5c>
  else
    FD_ZERO(&lreadset);
  80158d:	c7 44 24 08 04 00 00 	movl   $0x4,0x8(%esp)
  801594:	00 
  801595:	c7 44 24 04 00 00 00 	movl   $0x0,0x4(%esp)
  80159c:	00 
  80159d:	8d 45 e4             	lea    -0x1c(%ebp),%eax
  8015a0:	89 04 24             	mov    %eax,(%esp)
  8015a3:	e8 a8 e4 00 00       	call   80fa50 <memset>
  if (writeset)
  8015a8:	85 f6                	test   %esi,%esi
  8015aa:	74 07                	je     8015b3 <lwip_select+0x67>
    lwriteset = *writeset;
  8015ac:	8b 06                	mov    (%esi),%eax
  8015ae:	89 45 e0             	mov    %eax,-0x20(%ebp)
  8015b1:	eb 1b                	jmp    8015ce <lwip_select+0x82>
  else
    FD_ZERO(&lwriteset);
  8015b3:	c7 44 24 08 04 00 00 	movl   $0x4,0x8(%esp)
  8015ba:	00 
  8015bb:	c7 44 24 04 00 00 00 	movl   $0x0,0x4(%esp)
  8015c2:	00 
  8015c3:	8d 45 e0             	lea    -0x20(%ebp),%eax
  8015c6:	89 04 24             	mov    %eax,(%esp)
  8015c9:	e8 82 e4 00 00       	call   80fa50 <memset>
  if (exceptset)
  8015ce:	85 db                	test   %ebx,%ebx
  8015d0:	74 07                	je     8015d9 <lwip_select+0x8d>
    lexceptset = *exceptset;
  8015d2:	8b 03                	mov    (%ebx),%eax
  8015d4:	89 45 dc             	mov    %eax,-0x24(%ebp)
  8015d7:	eb 1b                	jmp    8015f4 <lwip_select+0xa8>
  else
    FD_ZERO(&lexceptset);
  8015d9:	c7 44 24 08 04 00 00 	movl   $0x4,0x8(%esp)
  8015e0:	00 
  8015e1:	c7 44 24 04 00 00 00 	movl   $0x0,0x4(%esp)
  8015e8:	00 
  8015e9:	8d 45 dc             	lea    -0x24(%ebp),%eax
  8015ec:	89 04 24             	mov    %eax,(%esp)
  8015ef:	e8 5c e4 00 00       	call   80fa50 <memset>

  /* Go through each socket in each list to count number of sockets which
     currently match */
  nready = lwip_selscan(maxfdp1, &lreadset, &lwriteset, &lexceptset);
  8015f4:	8d 4d e0             	lea    -0x20(%ebp),%ecx
  8015f7:	8d 55 e4             	lea    -0x1c(%ebp),%edx
  8015fa:	8d 45 dc             	lea    -0x24(%ebp),%eax
  8015fd:	89 04 24             	mov    %eax,(%esp)
  801600:	8b 45 08             	mov    0x8(%ebp),%eax
  801603:	e8 d0 fa ff ff       	call   8010d8 <lwip_selscan>
  801608:	89 45 b0             	mov    %eax,-0x50(%ebp)

  /* If we don't have any current events, then suspend if we are supposed to */
  if (!nready) {
  80160b:	85 c0                	test   %eax,%eax
  80160d:	0f 85 18 02 00 00    	jne    80182b <lwip_select+0x2df>
    if (timeout && timeout->tv_sec == 0 && timeout->tv_usec == 0) {
  801613:	83 7d 18 00          	cmpl   $0x0,0x18(%ebp)
  801617:	0f 84 86 00 00 00    	je     8016a3 <lwip_select+0x157>
  80161d:	8b 45 18             	mov    0x18(%ebp),%eax
  801620:	83 38 00             	cmpl   $0x0,(%eax)
  801623:	0f 85 3f 02 00 00    	jne    801868 <lwip_select+0x31c>
  801629:	83 78 04 00          	cmpl   $0x0,0x4(%eax)
  80162d:	0f 85 35 02 00 00    	jne    801868 <lwip_select+0x31c>
      sys_sem_signal(selectsem);
  801633:	a1 e8 52 81 00       	mov    0x8152e8,%eax
  801638:	89 04 24             	mov    %eax,(%esp)
  80163b:	e8 31 96 00 00       	call   80ac71 <sys_sem_signal>
      if (readset)
  801640:	85 ff                	test   %edi,%edi
  801642:	74 18                	je     80165c <lwip_select+0x110>
        FD_ZERO(readset);
  801644:	c7 44 24 08 04 00 00 	movl   $0x4,0x8(%esp)
  80164b:	00 
  80164c:	c7 44 24 04 00 00 00 	movl   $0x0,0x4(%esp)
  801653:	00 
  801654:	89 3c 24             	mov    %edi,(%esp)
  801657:	e8 f4 e3 00 00       	call   80fa50 <memset>
      if (writeset)
  80165c:	85 f6                	test   %esi,%esi
  80165e:	74 18                	je     801678 <lwip_select+0x12c>
        FD_ZERO(writeset);
  801660:	c7 44 24 08 04 00 00 	movl   $0x4,0x8(%esp)
  801667:	00 
  801668:	c7 44 24 04 00 00 00 	movl   $0x0,0x4(%esp)
  80166f:	00 
  801670:	89 34 24             	mov    %esi,(%esp)
  801673:	e8 d8 e3 00 00       	call   80fa50 <memset>
      if (exceptset)
  801678:	85 db                	test   %ebx,%ebx
  80167a:	74 18                	je     801694 <lwip_select+0x148>
        FD_ZERO(exceptset);
  80167c:	c7 44 24 08 04 00 00 	movl   $0x4,0x8(%esp)
  801683:	00 
  801684:	c7 44 24 04 00 00 00 	movl   $0x0,0x4(%esp)
  80168b:	00 
  80168c:	89 1c 24             	mov    %ebx,(%esp)
  80168f:	e8 bc e3 00 00       	call   80fa50 <memset>
  
      LWIP_DEBUGF(SOCKETS_DEBUG, ("lwip_select: no timeout, returning 0\n"));
      set_errno(0);
  801694:	c7 05 e0 b1 b3 00 00 	movl   $0x0,0xb3b1e0
  80169b:	00 00 00 
  
      return 0;
  80169e:	e9 ba 01 00 00       	jmp    80185d <lwip_select+0x311>
    /* add our semaphore to list */
    /* We don't actually need any dynamic memory. Our entry on the
     * list is only valid while we are in this function, so it's ok
     * to use local variables */
    
    select_cb.sem = sys_sem_new(0);
  8016a3:	c7 04 24 00 00 00 00 	movl   $0x0,(%esp)
  8016aa:	e8 20 94 00 00       	call   80aacf <sys_sem_new>
  8016af:	89 45 d8             	mov    %eax,-0x28(%ebp)
    /* Note that we are still protected */
    /* Put this select_cb on top of list */
    select_cb.next = select_cb_list;
  8016b2:	a1 e0 52 81 00       	mov    0x8152e0,%eax
  8016b7:	89 45 c4             	mov    %eax,-0x3c(%ebp)
    select_cb_list = &select_cb;
  8016ba:	8d 45 c4             	lea    -0x3c(%ebp),%eax
  8016bd:	a3 e0 52 81 00       	mov    %eax,0x8152e0
    
    /* Now we can safely unprotect */
    sys_sem_signal(selectsem);
  8016c2:	a1 e8 52 81 00       	mov    0x8152e8,%eax
  8016c7:	89 04 24             	mov    %eax,(%esp)
  8016ca:	e8 a2 95 00 00       	call   80ac71 <sys_sem_signal>
  8016cf:	ba 00 00 00 00       	mov    $0x0,%edx
      msectimeout =  ((timeout->tv_sec * 1000) + ((timeout->tv_usec + 500)/1000));
      if(msectimeout == 0)
        msectimeout = 1;
    }
    
    i = sys_sem_wait_timeout(select_cb.sem, msectimeout);
  8016d4:	89 54 24 04          	mov    %edx,0x4(%esp)
  8016d8:	8b 45 d8             	mov    -0x28(%ebp),%eax
  8016db:	89 04 24             	mov    %eax,(%esp)
  8016de:	e8 83 42 00 00       	call   805966 <sys_sem_wait_timeout>
  8016e3:	89 45 b4             	mov    %eax,-0x4c(%ebp)
    
    /* Take us off the list */
    sys_sem_wait(selectsem);
  8016e6:	a1 e8 52 81 00       	mov    0x8152e8,%eax
  8016eb:	89 04 24             	mov    %eax,(%esp)
  8016ee:	e8 e6 41 00 00       	call   8058d9 <sys_sem_wait>
    if (select_cb_list == &select_cb)
  8016f3:	a1 e0 52 81 00       	mov    0x8152e0,%eax
  8016f8:	8d 55 c4             	lea    -0x3c(%ebp),%edx
      select_cb_list = select_cb.next;
    else
      for (p_selcb = select_cb_list; p_selcb; p_selcb = p_selcb->next) {
        if (p_selcb->next == &select_cb) {
  8016fb:	8d 4d c4             	lea    -0x3c(%ebp),%ecx
    
    i = sys_sem_wait_timeout(select_cb.sem, msectimeout);
    
    /* Take us off the list */
    sys_sem_wait(selectsem);
    if (select_cb_list == &select_cb)
  8016fe:	39 d0                	cmp    %edx,%eax
  801700:	75 19                	jne    80171b <lwip_select+0x1cf>
      select_cb_list = select_cb.next;
  801702:	8b 45 c4             	mov    -0x3c(%ebp),%eax
  801705:	a3 e0 52 81 00       	mov    %eax,0x8152e0
  80170a:	eb 13                	jmp    80171f <lwip_select+0x1d3>
    else
      for (p_selcb = select_cb_list; p_selcb; p_selcb = p_selcb->next) {
        if (p_selcb->next == &select_cb) {
  80170c:	8b 10                	mov    (%eax),%edx
  80170e:	39 ca                	cmp    %ecx,%edx
  801710:	75 07                	jne    801719 <lwip_select+0x1cd>
          p_selcb->next = select_cb.next;
  801712:	8b 55 c4             	mov    -0x3c(%ebp),%edx
  801715:	89 10                	mov    %edx,(%eax)
          break;
  801717:	eb 06                	jmp    80171f <lwip_select+0x1d3>
  801719:	89 d0                	mov    %edx,%eax
    /* Take us off the list */
    sys_sem_wait(selectsem);
    if (select_cb_list == &select_cb)
      select_cb_list = select_cb.next;
    else
      for (p_selcb = select_cb_list; p_selcb; p_selcb = p_selcb->next) {
  80171b:	85 c0                	test   %eax,%eax
  80171d:	75 ed                	jne    80170c <lwip_select+0x1c0>
          p_selcb->next = select_cb.next;
          break;
        }
      }
    
    sys_sem_signal(selectsem);
  80171f:	a1 e8 52 81 00       	mov    0x8152e8,%eax
  801724:	89 04 24             	mov    %eax,(%esp)
  801727:	e8 45 95 00 00       	call   80ac71 <sys_sem_signal>
    
    sys_sem_free(select_cb.sem);
  80172c:	8b 45 d8             	mov    -0x28(%ebp),%eax
  80172f:	89 04 24             	mov    %eax,(%esp)
  801732:	e8 32 8f 00 00       	call   80a669 <sys_sem_free>
    if (i == 0)  {
  801737:	83 7d b4 00          	cmpl   $0x0,-0x4c(%ebp)
  80173b:	75 63                	jne    8017a0 <lwip_select+0x254>
      /* Timeout */
      if (readset)
  80173d:	85 ff                	test   %edi,%edi
  80173f:	74 18                	je     801759 <lwip_select+0x20d>
        FD_ZERO(readset);
  801741:	c7 44 24 08 04 00 00 	movl   $0x4,0x8(%esp)
  801748:	00 
  801749:	c7 44 24 04 00 00 00 	movl   $0x0,0x4(%esp)
  801750:	00 
  801751:	89 3c 24             	mov    %edi,(%esp)
  801754:	e8 f7 e2 00 00       	call   80fa50 <memset>
      if (writeset)
  801759:	85 f6                	test   %esi,%esi
  80175b:	74 18                	je     801775 <lwip_select+0x229>
        FD_ZERO(writeset);
  80175d:	c7 44 24 08 04 00 00 	movl   $0x4,0x8(%esp)
  801764:	00 
  801765:	c7 44 24 04 00 00 00 	movl   $0x0,0x4(%esp)
  80176c:	00 
  80176d:	89 34 24             	mov    %esi,(%esp)
  801770:	e8 db e2 00 00       	call   80fa50 <memset>
      if (exceptset)
  801775:	85 db                	test   %ebx,%ebx
  801777:	74 18                	je     801791 <lwip_select+0x245>
        FD_ZERO(exceptset);
  801779:	c7 44 24 08 04 00 00 	movl   $0x4,0x8(%esp)
  801780:	00 
  801781:	c7 44 24 04 00 00 00 	movl   $0x0,0x4(%esp)
  801788:	00 
  801789:	89 1c 24             	mov    %ebx,(%esp)
  80178c:	e8 bf e2 00 00       	call   80fa50 <memset>
  
      LWIP_DEBUGF(SOCKETS_DEBUG, ("lwip_select: timeout expired\n"));
      set_errno(0);
  801791:	c7 05 e0 b1 b3 00 00 	movl   $0x0,0xb3b1e0
  801798:	00 00 00 
  
      return 0;
  80179b:	e9 bd 00 00 00       	jmp    80185d <lwip_select+0x311>
    }
    
    if (readset)
  8017a0:	85 ff                	test   %edi,%edi
  8017a2:	74 07                	je     8017ab <lwip_select+0x25f>
      lreadset = *readset;
  8017a4:	8b 07                	mov    (%edi),%eax
  8017a6:	89 45 e4             	mov    %eax,-0x1c(%ebp)
  8017a9:	eb 1b                	jmp    8017c6 <lwip_select+0x27a>
    else
      FD_ZERO(&lreadset);
  8017ab:	c7 44 24 08 04 00 00 	movl   $0x4,0x8(%esp)
  8017b2:	00 
  8017b3:	c7 44 24 04 00 00 00 	movl   $0x0,0x4(%esp)
  8017ba:	00 
  8017bb:	8d 45 e4             	lea    -0x1c(%ebp),%eax
  8017be:	89 04 24             	mov    %eax,(%esp)
  8017c1:	e8 8a e2 00 00       	call   80fa50 <memset>
    if (writeset)
  8017c6:	85 f6                	test   %esi,%esi
  8017c8:	74 07                	je     8017d1 <lwip_select+0x285>
      lwriteset = *writeset;
  8017ca:	8b 06                	mov    (%esi),%eax
  8017cc:	89 45 e0             	mov    %eax,-0x20(%ebp)
  8017cf:	eb 1b                	jmp    8017ec <lwip_select+0x2a0>
    else
      FD_ZERO(&lwriteset);
  8017d1:	c7 44 24 08 04 00 00 	movl   $0x4,0x8(%esp)
  8017d8:	00 
  8017d9:	c7 44 24 04 00 00 00 	movl   $0x0,0x4(%esp)
  8017e0:	00 
  8017e1:	8d 45 e0             	lea    -0x20(%ebp),%eax
  8017e4:	89 04 24             	mov    %eax,(%esp)
  8017e7:	e8 64 e2 00 00       	call   80fa50 <memset>
    if (exceptset)
  8017ec:	85 db                	test   %ebx,%ebx
  8017ee:	74 07                	je     8017f7 <lwip_select+0x2ab>
      lexceptset = *exceptset;
  8017f0:	8b 03                	mov    (%ebx),%eax
  8017f2:	89 45 dc             	mov    %eax,-0x24(%ebp)
  8017f5:	eb 1b                	jmp    801812 <lwip_select+0x2c6>
    else
      FD_ZERO(&lexceptset);
  8017f7:	c7 44 24 08 04 00 00 	movl   $0x4,0x8(%esp)
  8017fe:	00 
  8017ff:	c7 44 24 04 00 00 00 	movl   $0x0,0x4(%esp)
  801806:	00 
  801807:	8d 45 dc             	lea    -0x24(%ebp),%eax
  80180a:	89 04 24             	mov    %eax,(%esp)
  80180d:	e8 3e e2 00 00       	call   80fa50 <memset>
    
    /* See what's set */
    nready = lwip_selscan(maxfdp1, &lreadset, &lwriteset, &lexceptset);
  801812:	8d 4d e0             	lea    -0x20(%ebp),%ecx
  801815:	8d 55 e4             	lea    -0x1c(%ebp),%edx
  801818:	8d 45 dc             	lea    -0x24(%ebp),%eax
  80181b:	89 04 24             	mov    %eax,(%esp)
  80181e:	8b 45 08             	mov    0x8(%ebp),%eax
  801821:	e8 b2 f8 ff ff       	call   8010d8 <lwip_selscan>
  801826:	89 45 b0             	mov    %eax,-0x50(%ebp)
  801829:	eb 0d                	jmp    801838 <lwip_select+0x2ec>
  } else
    sys_sem_signal(selectsem);
  80182b:	a1 e8 52 81 00       	mov    0x8152e8,%eax
  801830:	89 04 24             	mov    %eax,(%esp)
  801833:	e8 39 94 00 00       	call   80ac71 <sys_sem_signal>
  
  if (readset)
  801838:	85 ff                	test   %edi,%edi
  80183a:	74 05                	je     801841 <lwip_select+0x2f5>
    *readset = lreadset;
  80183c:	8b 45 e4             	mov    -0x1c(%ebp),%eax
  80183f:	89 07                	mov    %eax,(%edi)
  if (writeset)
  801841:	85 f6                	test   %esi,%esi
  801843:	74 05                	je     80184a <lwip_select+0x2fe>
    *writeset = lwriteset;
  801845:	8b 45 e0             	mov    -0x20(%ebp),%eax
  801848:	89 06                	mov    %eax,(%esi)
  if (exceptset)
  80184a:	85 db                	test   %ebx,%ebx
  80184c:	74 05                	je     801853 <lwip_select+0x307>
    *exceptset = lexceptset;
  80184e:	8b 45 dc             	mov    -0x24(%ebp),%eax
  801851:	89 03                	mov    %eax,(%ebx)
  
  LWIP_DEBUGF(SOCKETS_DEBUG, ("lwip_select: nready=%d\n", nready));
  set_errno(0);
  801853:	c7 05 e0 b1 b3 00 00 	movl   $0x0,0xb3b1e0
  80185a:	00 00 00 
  
  return nready;
}
  80185d:	8b 45 b0             	mov    -0x50(%ebp),%eax
  801860:	83 c4 5c             	add    $0x5c,%esp
  801863:	5b                   	pop    %ebx
  801864:	5e                   	pop    %esi
  801865:	5f                   	pop    %edi
  801866:	5d                   	pop    %ebp
  801867:	c3                   	ret    
    /* add our semaphore to list */
    /* We don't actually need any dynamic memory. Our entry on the
     * list is only valid while we are in this function, so it's ok
     * to use local variables */
    
    select_cb.sem = sys_sem_new(0);
  801868:	c7 04 24 00 00 00 00 	movl   $0x0,(%esp)
  80186f:	e8 5b 92 00 00       	call   80aacf <sys_sem_new>
  801874:	89 45 d8             	mov    %eax,-0x28(%ebp)
    /* Note that we are still protected */
    /* Put this select_cb on top of list */
    select_cb.next = select_cb_list;
  801877:	a1 e0 52 81 00       	mov    0x8152e0,%eax
  80187c:	89 45 c4             	mov    %eax,-0x3c(%ebp)
    select_cb_list = &select_cb;
  80187f:	8d 45 c4             	lea    -0x3c(%ebp),%eax
  801882:	a3 e0 52 81 00       	mov    %eax,0x8152e0
    
    /* Now we can safely unprotect */
    sys_sem_signal(selectsem);
  801887:	a1 e8 52 81 00       	mov    0x8152e8,%eax
  80188c:	89 04 24             	mov    %eax,(%esp)
  80188f:	e8 dd 93 00 00       	call   80ac71 <sys_sem_signal>
    /* Now just wait to be woken */
    if (timeout == 0)
      /* Wait forever */
      msectimeout = 0;
    else {
      msectimeout =  ((timeout->tv_sec * 1000) + ((timeout->tv_usec + 500)/1000));
  801894:	8b 45 18             	mov    0x18(%ebp),%eax
  801897:	8b 48 04             	mov    0x4(%eax),%ecx
  80189a:	81 c1 f4 01 00 00    	add    $0x1f4,%ecx
  8018a0:	ba d3 4d 62 10       	mov    $0x10624dd3,%edx
  8018a5:	89 c8                	mov    %ecx,%eax
  8018a7:	f7 ea                	imul   %edx
  8018a9:	c1 fa 06             	sar    $0x6,%edx
  8018ac:	c1 f9 1f             	sar    $0x1f,%ecx
  8018af:	29 ca                	sub    %ecx,%edx
  8018b1:	8b 45 18             	mov    0x18(%ebp),%eax
  8018b4:	69 08 e8 03 00 00    	imul   $0x3e8,(%eax),%ecx
      if(msectimeout == 0)
  8018ba:	01 ca                	add    %ecx,%edx
  8018bc:	b8 01 00 00 00       	mov    $0x1,%eax
  8018c1:	0f 44 d0             	cmove  %eax,%edx
  8018c4:	e9 0b fe ff ff       	jmp    8016d4 <lwip_select+0x188>

008018c9 <lwip_socket>:
  return (err==ERR_OK?size:-1);
}

int
lwip_socket(int domain, int type, int protocol)
{
  8018c9:	55                   	push   %ebp
  8018ca:	89 e5                	mov    %esp,%ebp
  8018cc:	56                   	push   %esi
  8018cd:	53                   	push   %ebx
  8018ce:	83 ec 10             	sub    $0x10,%esp
  8018d1:	8b 45 0c             	mov    0xc(%ebp),%eax
  8018d4:	8b 55 10             	mov    0x10(%ebp),%edx
  int i;

  LWIP_UNUSED_ARG(domain);

  /* create a netconn */
  switch (type) {
  8018d7:	83 f8 02             	cmp    $0x2,%eax
  8018da:	74 2b                	je     801907 <lwip_socket+0x3e>
  8018dc:	83 f8 03             	cmp    $0x3,%eax
  8018df:	74 07                	je     8018e8 <lwip_socket+0x1f>
  8018e1:	83 f8 01             	cmp    $0x1,%eax
  8018e4:	75 6c                	jne    801952 <lwip_socket+0x89>
  8018e6:	eb 4a                	jmp    801932 <lwip_socket+0x69>
  case SOCK_RAW:
    conn = netconn_new_with_proto_and_callback(NETCONN_RAW, (u8_t)protocol, event_callback);
  8018e8:	c7 44 24 08 9b 13 80 	movl   $0x80139b,0x8(%esp)
  8018ef:	00 
  8018f0:	0f b6 d2             	movzbl %dl,%edx
  8018f3:	89 54 24 04          	mov    %edx,0x4(%esp)
  8018f7:	c7 04 24 40 00 00 00 	movl   $0x40,(%esp)
  8018fe:	e8 ee a2 00 00       	call   80bbf1 <netconn_new_with_proto_and_callback>
  801903:	89 c6                	mov    %eax,%esi
    LWIP_DEBUGF(SOCKETS_DEBUG, ("lwip_socket(%s, SOCK_RAW, %d) = ",
                                 domain == PF_INET ? "PF_INET" : "UNKNOWN", protocol));
    break;
  801905:	eb 5c                	jmp    801963 <lwip_socket+0x9a>
  case SOCK_DGRAM:
    conn = netconn_new_with_callback( (protocol == IPPROTO_UDPLITE) ?
  801907:	81 fa 88 00 00 00    	cmp    $0x88,%edx
  80190d:	0f 94 c0             	sete   %al
  801910:	0f b6 c0             	movzbl %al,%eax
  801913:	83 c0 20             	add    $0x20,%eax
  801916:	c7 44 24 08 9b 13 80 	movl   $0x80139b,0x8(%esp)
  80191d:	00 
  80191e:	c7 44 24 04 00 00 00 	movl   $0x0,0x4(%esp)
  801925:	00 
  801926:	89 04 24             	mov    %eax,(%esp)
  801929:	e8 c3 a2 00 00       	call   80bbf1 <netconn_new_with_proto_and_callback>
  80192e:	89 c6                	mov    %eax,%esi
                 NETCONN_UDPLITE : NETCONN_UDP, event_callback);
    LWIP_DEBUGF(SOCKETS_DEBUG, ("lwip_socket(%s, SOCK_DGRAM, %d) = ",
                                 domain == PF_INET ? "PF_INET" : "UNKNOWN", protocol));
    break;
  801930:	eb 31                	jmp    801963 <lwip_socket+0x9a>
  case SOCK_STREAM:
    conn = netconn_new_with_callback(NETCONN_TCP, event_callback);
  801932:	c7 44 24 08 9b 13 80 	movl   $0x80139b,0x8(%esp)
  801939:	00 
  80193a:	c7 44 24 04 00 00 00 	movl   $0x0,0x4(%esp)
  801941:	00 
  801942:	c7 04 24 10 00 00 00 	movl   $0x10,(%esp)
  801949:	e8 a3 a2 00 00       	call   80bbf1 <netconn_new_with_proto_and_callback>
  80194e:	89 c6                	mov    %eax,%esi
    LWIP_DEBUGF(SOCKETS_DEBUG, ("lwip_socket(%s, SOCK_STREAM, %d) = ",
                                 domain == PF_INET ? "PF_INET" : "UNKNOWN", protocol));
    break;
  801950:	eb 11                	jmp    801963 <lwip_socket+0x9a>
  default:
    LWIP_DEBUGF(SOCKETS_DEBUG, ("lwip_socket(%d, %d/UNKNOWN, %d) = -1\n",
                                 domain, type, protocol));
    set_errno(EINVAL);
  801952:	c7 05 e0 b1 b3 00 16 	movl   $0x16,0xb3b1e0
  801959:	00 00 00 
  80195c:	bb ff ff ff ff       	mov    $0xffffffff,%ebx
    return -1;
  801961:	eb 44                	jmp    8019a7 <lwip_socket+0xde>
  }

  if (!conn) {
  801963:	85 f6                	test   %esi,%esi
  801965:	75 11                	jne    801978 <lwip_socket+0xaf>
    LWIP_DEBUGF(SOCKETS_DEBUG, ("-1 / ENOBUFS (could not create netconn)\n"));
    set_errno(ENOBUFS);
  801967:	c7 05 e0 b1 b3 00 69 	movl   $0x69,0xb3b1e0
  80196e:	00 00 00 
  801971:	bb ff ff ff ff       	mov    $0xffffffff,%ebx
    return -1;
  801976:	eb 2f                	jmp    8019a7 <lwip_socket+0xde>
  }

  i = alloc_socket(conn);
  801978:	89 f0                	mov    %esi,%eax
  80197a:	e8 80 f9 ff ff       	call   8012ff <alloc_socket>
  80197f:	89 c3                	mov    %eax,%ebx

  if (i == -1) {
  801981:	83 f8 ff             	cmp    $0xffffffff,%eax
  801984:	75 14                	jne    80199a <lwip_socket+0xd1>
    netconn_delete(conn);
  801986:	89 34 24             	mov    %esi,(%esp)
  801989:	e8 26 a2 00 00       	call   80bbb4 <netconn_delete>
    set_errno(ENFILE);
  80198e:	c7 05 e0 b1 b3 00 17 	movl   $0x17,0xb3b1e0
  801995:	00 00 00 
    return -1;
  801998:	eb 0d                	jmp    8019a7 <lwip_socket+0xde>
  }
  conn->socket = i;
  80199a:	89 46 1c             	mov    %eax,0x1c(%esi)
  LWIP_DEBUGF(SOCKETS_DEBUG, ("%d\n", i));
  set_errno(0);
  80199d:	c7 05 e0 b1 b3 00 00 	movl   $0x0,0xb3b1e0
  8019a4:	00 00 00 
  return i;
}
  8019a7:	89 d8                	mov    %ebx,%eax
  8019a9:	83 c4 10             	add    $0x10,%esp
  8019ac:	5b                   	pop    %ebx
  8019ad:	5e                   	pop    %esi
  8019ae:	5d                   	pop    %ebp
  8019af:	c3                   	ret    

008019b0 <lwip_send>:
  return lwip_recvfrom(s, mem, len, flags, NULL, NULL);
}

int
lwip_send(int s, const void *data, int size, unsigned int flags)
{
  8019b0:	55                   	push   %ebp
  8019b1:	89 e5                	mov    %esp,%ebp
  8019b3:	83 ec 38             	sub    $0x38,%esp
  8019b6:	89 5d f4             	mov    %ebx,-0xc(%ebp)
  8019b9:	89 75 f8             	mov    %esi,-0x8(%ebp)
  8019bc:	89 7d fc             	mov    %edi,-0x4(%ebp)
  8019bf:	8b 7d 08             	mov    0x8(%ebp),%edi
  8019c2:	8b 75 10             	mov    0x10(%ebp),%esi
  err_t err;

  LWIP_DEBUGF(SOCKETS_DEBUG, ("lwip_send(%d, data=%p, size=%d, flags=0x%x)\n",
                              s, data, size, flags));

  sock = get_socket(s);
  8019c5:	89 f8                	mov    %edi,%eax
  8019c7:	e8 54 f0 ff ff       	call   800a20 <get_socket>
  8019cc:	89 c3                	mov    %eax,%ebx
  if (!sock)
  8019ce:	85 c0                	test   %eax,%eax
  8019d0:	0f 84 80 00 00 00    	je     801a56 <lwip_send+0xa6>
    return -1;

  if (sock->conn->type!=NETCONN_TCP) {
  8019d6:	8b 00                	mov    (%eax),%eax
  8019d8:	83 38 10             	cmpl   $0x10,(%eax)
  8019db:	74 2e                	je     801a0b <lwip_send+0x5b>
#if (LWIP_UDP || LWIP_RAW)
    return lwip_sendto(s, data, size, flags, NULL, 0);
  8019dd:	c7 44 24 14 00 00 00 	movl   $0x0,0x14(%esp)
  8019e4:	00 
  8019e5:	c7 44 24 10 00 00 00 	movl   $0x0,0x10(%esp)
  8019ec:	00 
  8019ed:	8b 45 14             	mov    0x14(%ebp),%eax
  8019f0:	89 44 24 0c          	mov    %eax,0xc(%esp)
  8019f4:	89 74 24 08          	mov    %esi,0x8(%esp)
  8019f8:	8b 55 0c             	mov    0xc(%ebp),%edx
  8019fb:	89 54 24 04          	mov    %edx,0x4(%esp)
  8019ff:	89 3c 24             	mov    %edi,(%esp)
  801a02:	e8 8c 00 00 00       	call   801a93 <lwip_sendto>
  801a07:	89 c6                	mov    %eax,%esi
  801a09:	eb 50                	jmp    801a5b <lwip_send+0xab>
    sock_set_errno(sock, err_to_errno(ERR_ARG));
    return -1;
#endif /* (LWIP_UDP || LWIP_RAW) */
  }

  err = netconn_write(sock->conn, data, size, NETCONN_COPY | ((flags & MSG_MORE)?NETCONN_MORE:0));
  801a0b:	8b 55 14             	mov    0x14(%ebp),%edx
  801a0e:	83 e2 10             	and    $0x10,%edx
  801a11:	83 fa 01             	cmp    $0x1,%edx
  801a14:	19 d2                	sbb    %edx,%edx
  801a16:	83 e2 fe             	and    $0xfffffffe,%edx
  801a19:	83 c2 03             	add    $0x3,%edx
  801a1c:	89 54 24 0c          	mov    %edx,0xc(%esp)
  801a20:	89 74 24 08          	mov    %esi,0x8(%esp)
  801a24:	8b 55 0c             	mov    0xc(%ebp),%edx
  801a27:	89 54 24 04          	mov    %edx,0x4(%esp)
  801a2b:	89 04 24             	mov    %eax,(%esp)
  801a2e:	e8 6f 9c 00 00       	call   80b6a2 <netconn_write>

  LWIP_DEBUGF(SOCKETS_DEBUG, ("lwip_send(%d) err=%d size=%d\n", s, err, size));
  sock_set_errno(sock, err_to_errno(err));
  801a33:	0f be c8             	movsbl %al,%ecx
  801a36:	f7 d9                	neg    %ecx
  801a38:	ba 05 00 00 00       	mov    $0x5,%edx
  801a3d:	83 f9 0e             	cmp    $0xe,%ecx
  801a40:	77 07                	ja     801a49 <lwip_send+0x99>
  801a42:	8b 14 8d e0 12 81 00 	mov    0x8112e0(,%ecx,4),%edx
  801a49:	89 53 10             	mov    %edx,0x10(%ebx)
  801a4c:	89 15 e0 b1 b3 00    	mov    %edx,0xb3b1e0
  return (err==ERR_OK?size:-1);
  801a52:	84 c0                	test   %al,%al
  801a54:	74 05                	je     801a5b <lwip_send+0xab>
  801a56:	be ff ff ff ff       	mov    $0xffffffff,%esi
}
  801a5b:	89 f0                	mov    %esi,%eax
  801a5d:	8b 5d f4             	mov    -0xc(%ebp),%ebx
  801a60:	8b 75 f8             	mov    -0x8(%ebp),%esi
  801a63:	8b 7d fc             	mov    -0x4(%ebp),%edi
  801a66:	89 ec                	mov    %ebp,%esp
  801a68:	5d                   	pop    %ebp
  801a69:	c3                   	ret    

00801a6a <lwip_write>:
  return i;
}

int
lwip_write(int s, const void *data, int size)
{
  801a6a:	55                   	push   %ebp
  801a6b:	89 e5                	mov    %esp,%ebp
  801a6d:	83 ec 18             	sub    $0x18,%esp
  return lwip_send(s, data, size, 0);
  801a70:	c7 44 24 0c 00 00 00 	movl   $0x0,0xc(%esp)
  801a77:	00 
  801a78:	8b 45 10             	mov    0x10(%ebp),%eax
  801a7b:	89 44 24 08          	mov    %eax,0x8(%esp)
  801a7f:	8b 45 0c             	mov    0xc(%ebp),%eax
  801a82:	89 44 24 04          	mov    %eax,0x4(%esp)
  801a86:	8b 45 08             	mov    0x8(%ebp),%eax
  801a89:	89 04 24             	mov    %eax,(%esp)
  801a8c:	e8 1f ff ff ff       	call   8019b0 <lwip_send>
}
  801a91:	c9                   	leave  
  801a92:	c3                   	ret    

00801a93 <lwip_sendto>:
}

int
lwip_sendto(int s, const void *data, int size, unsigned int flags,
       struct sockaddr *to, socklen_t tolen)
{
  801a93:	55                   	push   %ebp
  801a94:	89 e5                	mov    %esp,%ebp
  801a96:	57                   	push   %edi
  801a97:	56                   	push   %esi
  801a98:	53                   	push   %ebx
  801a99:	83 ec 3c             	sub    $0x3c,%esp
  801a9c:	8b 7d 10             	mov    0x10(%ebp),%edi
  801a9f:	8b 75 18             	mov    0x18(%ebp),%esi
#if !LWIP_TCPIP_CORE_LOCKING
  struct netbuf buf;
  u16_t remote_port;
#endif

  sock = get_socket(s);
  801aa2:	8b 45 08             	mov    0x8(%ebp),%eax
  801aa5:	e8 76 ef ff ff       	call   800a20 <get_socket>
  801aaa:	89 c3                	mov    %eax,%ebx
  if (!sock)
  801aac:	85 c0                	test   %eax,%eax
  801aae:	0f 84 2c 01 00 00    	je     801be0 <lwip_sendto+0x14d>
    return -1;

  if (sock->conn->type==NETCONN_TCP) {
  801ab4:	8b 00                	mov    (%eax),%eax
  801ab6:	83 38 10             	cmpl   $0x10,(%eax)
  801ab9:	75 24                	jne    801adf <lwip_sendto+0x4c>
#if LWIP_TCP
    return lwip_send(s, data, size, flags);
  801abb:	8b 45 14             	mov    0x14(%ebp),%eax
  801abe:	89 44 24 0c          	mov    %eax,0xc(%esp)
  801ac2:	89 7c 24 08          	mov    %edi,0x8(%esp)
  801ac6:	8b 45 0c             	mov    0xc(%ebp),%eax
  801ac9:	89 44 24 04          	mov    %eax,0x4(%esp)
  801acd:	8b 45 08             	mov    0x8(%ebp),%eax
  801ad0:	89 04 24             	mov    %eax,(%esp)
  801ad3:	e8 d8 fe ff ff       	call   8019b0 <lwip_send>
  801ad8:	89 c7                	mov    %eax,%edi
  801ada:	e9 06 01 00 00       	jmp    801be5 <lwip_sendto+0x152>
    sock_set_errno(sock, err_to_errno(ERR_ARG));
    return -1;
#endif /* LWIP_TCP */
  }

  LWIP_ASSERT("lwip_sendto: size must fit in u16_t",
  801adf:	81 ff ff ff 00 00    	cmp    $0xffff,%edi
  801ae5:	76 1c                	jbe    801b03 <lwip_sendto+0x70>
  801ae7:	c7 44 24 08 b0 12 81 	movl   $0x8112b0,0x8(%esp)
  801aee:	00 
  801aef:	c7 44 24 04 97 02 00 	movl   $0x297,0x4(%esp)
  801af6:	00 
  801af7:	c7 04 24 06 12 81 00 	movl   $0x811206,(%esp)
  801afe:	e8 e9 d6 00 00       	call   80f1ec <_panic>
              ((size >= 0) && (size <= 0xffff)));
  LWIP_ERROR("lwip_sendto: invalid address", (((to == NULL) && (tolen == 0)) ||
  801b03:	85 f6                	test   %esi,%esi
  801b05:	0f 95 c0             	setne  %al
  801b08:	75 06                	jne    801b10 <lwip_sendto+0x7d>
  801b0a:	83 7d 1c 00          	cmpl   $0x0,0x1c(%ebp)
  801b0e:	74 28                	je     801b38 <lwip_sendto+0xa5>
  801b10:	83 7d 1c 10          	cmpl   $0x10,0x1c(%ebp)
  801b14:	75 06                	jne    801b1c <lwip_sendto+0x89>
  801b16:	80 7e 01 02          	cmpb   $0x2,0x1(%esi)
  801b1a:	74 1c                	je     801b38 <lwip_sendto+0xa5>
  801b1c:	c7 44 24 08 2b 12 81 	movl   $0x81122b,0x8(%esp)
  801b23:	00 
  801b24:	c7 44 24 04 9b 02 00 	movl   $0x29b,0x4(%esp)
  801b2b:	00 
  801b2c:	c7 04 24 06 12 81 00 	movl   $0x811206,(%esp)
  801b33:	e8 b4 d6 00 00       	call   80f1ec <_panic>
      pbuf_free(p);
    }
  }
#else
  /* initialize a buffer */
  buf.p = buf.ptr = NULL;
  801b38:	c7 45 d8 00 00 00 00 	movl   $0x0,-0x28(%ebp)
  801b3f:	c7 45 d4 00 00 00 00 	movl   $0x0,-0x2c(%ebp)
  if (to) {
  801b46:	84 c0                	test   %al,%al
  801b48:	74 1e                	je     801b68 <lwip_sendto+0xd5>
    remote_addr.addr = ((struct sockaddr_in *)to)->sin_addr.s_addr;
  801b4a:	8b 46 04             	mov    0x4(%esi),%eax
  801b4d:	89 45 e4             	mov    %eax,-0x1c(%ebp)
    remote_port      = ntohs(((struct sockaddr_in *)to)->sin_port);
  801b50:	0f b7 46 02          	movzwl 0x2(%esi),%eax
  801b54:	89 04 24             	mov    %eax,(%esp)
  801b57:	e8 10 63 00 00       	call   807e6c <ntohs>
    buf.addr         = &remote_addr;
  801b5c:	8d 55 e4             	lea    -0x1c(%ebp),%edx
  801b5f:	89 55 dc             	mov    %edx,-0x24(%ebp)
    buf.port         = remote_port;
  801b62:	66 89 45 e0          	mov    %ax,-0x20(%ebp)
  801b66:	eb 14                	jmp    801b7c <lwip_sendto+0xe9>
  } else {
    remote_addr.addr = 0;
  801b68:	c7 45 e4 00 00 00 00 	movl   $0x0,-0x1c(%ebp)
    remote_port      = 0;
    buf.addr         = NULL;
  801b6f:	c7 45 dc 00 00 00 00 	movl   $0x0,-0x24(%ebp)
    buf.port         = 0;
  801b76:	66 c7 45 e0 00 00    	movw   $0x0,-0x20(%ebp)
              s, data, size, flags));
  //ip_addr_debug_print(SOCKETS_DEBUG, &remote_addr);
  LWIP_DEBUGF(SOCKETS_DEBUG, (" port=%u\n", remote_port));
    
  /* make the buffer point to the data that should be sent */
  if ((err = netbuf_ref(&buf, data, size)) == ERR_OK) {
  801b7c:	0f b7 c7             	movzwl %di,%eax
  801b7f:	89 44 24 08          	mov    %eax,0x8(%esp)
  801b83:	8b 45 0c             	mov    0xc(%ebp),%eax
  801b86:	89 44 24 04          	mov    %eax,0x4(%esp)
  801b8a:	8d 45 d4             	lea    -0x2c(%ebp),%eax
  801b8d:	89 04 24             	mov    %eax,(%esp)
  801b90:	e8 a0 0e 00 00       	call   802a35 <netbuf_ref>
  801b95:	0f be f0             	movsbl %al,%esi
  801b98:	85 f6                	test   %esi,%esi
  801b9a:	75 14                	jne    801bb0 <lwip_sendto+0x11d>
    /* send the data */
    err = netconn_send(sock->conn, &buf);
  801b9c:	8d 45 d4             	lea    -0x2c(%ebp),%eax
  801b9f:	89 44 24 04          	mov    %eax,0x4(%esp)
  801ba3:	8b 03                	mov    (%ebx),%eax
  801ba5:	89 04 24             	mov    %eax,(%esp)
  801ba8:	e8 72 9b 00 00       	call   80b71f <netconn_send>
  801bad:	0f be f0             	movsbl %al,%esi
  }

  /* deallocated the buffer */
  if (buf.p != NULL) {
  801bb0:	8b 45 d4             	mov    -0x2c(%ebp),%eax
  801bb3:	85 c0                	test   %eax,%eax
  801bb5:	74 08                	je     801bbf <lwip_sendto+0x12c>
    pbuf_free(buf.p);
  801bb7:	89 04 24             	mov    %eax,(%esp)
  801bba:	e8 65 36 00 00       	call   805224 <pbuf_free>
  }
#endif /* LWIP_TCPIP_CORE_LOCKING */
  sock_set_errno(sock, err_to_errno(err));
  801bbf:	89 f2                	mov    %esi,%edx
  801bc1:	f7 da                	neg    %edx
  801bc3:	b8 05 00 00 00       	mov    $0x5,%eax
  801bc8:	83 fa 0e             	cmp    $0xe,%edx
  801bcb:	77 07                	ja     801bd4 <lwip_sendto+0x141>
  801bcd:	8b 04 95 e0 12 81 00 	mov    0x8112e0(,%edx,4),%eax
  801bd4:	89 43 10             	mov    %eax,0x10(%ebx)
  801bd7:	a3 e0 b1 b3 00       	mov    %eax,0xb3b1e0
  return (err==ERR_OK?size:-1);
  801bdc:	85 f6                	test   %esi,%esi
  801bde:	74 05                	je     801be5 <lwip_sendto+0x152>
  801be0:	bf ff ff ff ff       	mov    $0xffffffff,%edi
}
  801be5:	89 f8                	mov    %edi,%eax
  801be7:	83 c4 3c             	add    $0x3c,%esp
  801bea:	5b                   	pop    %ebx
  801beb:	5e                   	pop    %esi
  801bec:	5f                   	pop    %edi
  801bed:	5d                   	pop    %ebp
  801bee:	c3                   	ret    

00801bef <lwip_recvfrom>:
}

int
lwip_recvfrom(int s, void *mem, int len, unsigned int flags,
        struct sockaddr *from, socklen_t *fromlen)
{
  801bef:	55                   	push   %ebp
  801bf0:	89 e5                	mov    %esp,%ebp
  801bf2:	57                   	push   %edi
  801bf3:	56                   	push   %esi
  801bf4:	53                   	push   %ebx
  801bf5:	83 ec 5c             	sub    $0x5c,%esp
  801bf8:	8b 75 14             	mov    0x14(%ebp),%esi
  struct ip_addr     *addr;
  u16_t               port;
  u8_t                done = 0;

  LWIP_DEBUGF(SOCKETS_DEBUG, ("lwip_recvfrom(%d, %p, %d, 0x%x, ..)\n", s, mem, len, flags));
  sock = get_socket(s);
  801bfb:	8b 45 08             	mov    0x8(%ebp),%eax
  801bfe:	e8 1d ee ff ff       	call   800a20 <get_socket>
  801c03:	89 c3                	mov    %eax,%ebx
  if (!sock)
  801c05:	66 c7 45 c6 00 00    	movw   $0x0,-0x3a(%ebp)
  801c0b:	b8 ff ff ff ff       	mov    $0xffffffff,%eax
  801c10:	85 db                	test   %ebx,%ebx
  801c12:	0f 84 0b 02 00 00    	je     801e23 <lwip_recvfrom+0x234>
    /* Check if there is data left from the last recv operation. */
    if (sock->lastdata) {
      buf = sock->lastdata;
    } else {
      /* If this is non-blocking call, then check first */
      if (((flags & MSG_DONTWAIT) || (sock->flags & O_NONBLOCK)) && !sock->rcvevent) {
  801c18:	89 f0                	mov    %esi,%eax
  801c1a:	83 e0 08             	and    $0x8,%eax
  801c1d:	89 45 b0             	mov    %eax,-0x50(%ebp)
    } else {
      done = 1;
    }

    /* If we don't peek the incoming message... */
    if ((flags & MSG_PEEK)==0) {
  801c20:	83 e6 01             	and    $0x1,%esi
  801c23:	89 75 b4             	mov    %esi,-0x4c(%ebp)
    return -1;

  do {
    LWIP_DEBUGF(SOCKETS_DEBUG, ("lwip_recvfrom: top while sock->lastdata=%p\n", (void*)sock->lastdata));
    /* Check if there is data left from the last recv operation. */
    if (sock->lastdata) {
  801c26:	8b 73 04             	mov    0x4(%ebx),%esi
  801c29:	85 f6                	test   %esi,%esi
  801c2b:	75 7d                	jne    801caa <lwip_recvfrom+0xbb>
      buf = sock->lastdata;
    } else {
      /* If this is non-blocking call, then check first */
      if (((flags & MSG_DONTWAIT) || (sock->flags & O_NONBLOCK)) && !sock->rcvevent) {
  801c2d:	83 7d b0 00          	cmpl   $0x0,-0x50(%ebp)
  801c31:	75 06                	jne    801c39 <lwip_recvfrom+0x4a>
  801c33:	f6 43 0f 08          	testb  $0x8,0xf(%ebx)
  801c37:	74 22                	je     801c5b <lwip_recvfrom+0x6c>
  801c39:	66 83 7b 0a 00       	cmpw   $0x0,0xa(%ebx)
  801c3e:	75 1b                	jne    801c5b <lwip_recvfrom+0x6c>
        LWIP_DEBUGF(SOCKETS_DEBUG, ("lwip_recvfrom(%d): returning EWOULDBLOCK\n", s));
        sock_set_errno(sock, EWOULDBLOCK);
  801c40:	c7 43 10 0b 00 00 00 	movl   $0xb,0x10(%ebx)
  801c47:	c7 05 e0 b1 b3 00 0b 	movl   $0xb,0xb3b1e0
  801c4e:	00 00 00 
  801c51:	b8 ff ff ff ff       	mov    $0xffffffff,%eax
        return -1;
  801c56:	e9 c8 01 00 00       	jmp    801e23 <lwip_recvfrom+0x234>
      }

      /* No data was left from the previous operation, so we try to get
      some from the network. */
      sock->lastdata = buf = netconn_recv(sock->conn);
  801c5b:	8b 03                	mov    (%ebx),%eax
  801c5d:	89 04 24             	mov    %eax,(%esp)
  801c60:	e8 a0 9d 00 00       	call   80ba05 <netconn_recv>
  801c65:	89 c6                	mov    %eax,%esi
  801c67:	89 43 04             	mov    %eax,0x4(%ebx)
      LWIP_DEBUGF(SOCKETS_DEBUG, ("lwip_recvfrom: netconn_recv netbuf=%p\n", (void*)buf));

      if (!buf) {
  801c6a:	85 c0                	test   %eax,%eax
  801c6c:	75 3c                	jne    801caa <lwip_recvfrom+0xbb>
        /* We should really do some error checking here. */
        LWIP_DEBUGF(SOCKETS_DEBUG, ("lwip_recvfrom(%d): buf == NULL!\n", s));
        sock_set_errno(sock, (((sock->conn->pcb.ip!=NULL) && (sock->conn->err==ERR_OK))?ETIMEDOUT:err_to_errno(sock->conn->err)));
  801c6e:	8b 13                	mov    (%ebx),%edx
  801c70:	83 7a 08 00          	cmpl   $0x0,0x8(%edx)
  801c74:	74 0b                	je     801c81 <lwip_recvfrom+0x92>
  801c76:	b8 6e 00 00 00       	mov    $0x6e,%eax
  801c7b:	80 7a 0c 00          	cmpb   $0x0,0xc(%edx)
  801c7f:	74 17                	je     801c98 <lwip_recvfrom+0xa9>
  801c81:	0f be 52 0c          	movsbl 0xc(%edx),%edx
  801c85:	f7 da                	neg    %edx
  801c87:	b8 05 00 00 00       	mov    $0x5,%eax
  801c8c:	83 fa 0e             	cmp    $0xe,%edx
  801c8f:	77 07                	ja     801c98 <lwip_recvfrom+0xa9>
  801c91:	8b 04 95 e0 12 81 00 	mov    0x8112e0(,%edx,4),%eax
  801c98:	89 43 10             	mov    %eax,0x10(%ebx)
  801c9b:	a3 e0 b1 b3 00       	mov    %eax,0xb3b1e0
  801ca0:	b8 00 00 00 00       	mov    $0x0,%eax
        return 0;
  801ca5:	e9 79 01 00 00       	jmp    801e23 <lwip_recvfrom+0x234>
      }
    }

    buflen = netbuf_len(buf);
  801caa:	8b 06                	mov    (%esi),%eax
  801cac:	0f b7 78 08          	movzwl 0x8(%eax),%edi
    LWIP_DEBUGF(SOCKETS_DEBUG, ("lwip_recvfrom: buflen=%d len=%d off=%d sock->lastoffset=%d\n", buflen, len, off, sock->lastoffset));

    buflen -= sock->lastoffset;
  801cb0:	0f b7 53 08          	movzwl 0x8(%ebx),%edx
  801cb4:	66 29 d7             	sub    %dx,%di

    if (len > buflen) {
  801cb7:	0f b7 cf             	movzwl %di,%ecx
  801cba:	89 4d bc             	mov    %ecx,-0x44(%ebp)
  801cbd:	39 4d 10             	cmp    %ecx,0x10(%ebp)
  801cc0:	0f 4e 7d 10          	cmovle 0x10(%ebp),%edi
      copylen = len;
    }

    /* copy the contents of the received buffer into
    the supplied memory pointer mem */
    netbuf_copy_partial(buf, (u8_t*)mem + off, copylen, sock->lastoffset);
  801cc4:	0f b7 cf             	movzwl %di,%ecx
  801cc7:	89 4d c0             	mov    %ecx,-0x40(%ebp)
  801cca:	0f b7 d2             	movzwl %dx,%edx
  801ccd:	89 54 24 0c          	mov    %edx,0xc(%esp)
  801cd1:	89 4c 24 08          	mov    %ecx,0x8(%esp)
  801cd5:	0f b7 55 c6          	movzwl -0x3a(%ebp),%edx
  801cd9:	03 55 0c             	add    0xc(%ebp),%edx
  801cdc:	89 54 24 04          	mov    %edx,0x4(%esp)
  801ce0:	89 04 24             	mov    %eax,(%esp)
  801ce3:	e8 d2 32 00 00       	call   804fba <pbuf_copy_partial>

    off += copylen;
  801ce8:	66 01 7d c6          	add    %di,-0x3a(%ebp)

    if (netconn_type(sock->conn) == NETCONN_TCP) {
  801cec:	8b 03                	mov    (%ebx),%eax
  801cee:	89 04 24             	mov    %eax,(%esp)
  801cf1:	e8 36 99 00 00       	call   80b62c <netconn_type>
  801cf6:	83 f8 10             	cmp    $0x10,%eax
  801cf9:	75 1f                	jne    801d1a <lwip_recvfrom+0x12b>
      len -= copylen;
  801cfb:	8b 45 c0             	mov    -0x40(%ebp),%eax
  801cfe:	29 45 10             	sub    %eax,0x10(%ebp)
      if ( (len <= 0) || (buf->p->flags & PBUF_FLAG_PUSH) || !sock->rcvevent) {
  801d01:	83 7d 10 00          	cmpl   $0x0,0x10(%ebp)
  801d05:	7e 13                	jle    801d1a <lwip_recvfrom+0x12b>
  801d07:	8b 06                	mov    (%esi),%eax
  801d09:	f6 40 0d 01          	testb  $0x1,0xd(%eax)
  801d0d:	75 0b                	jne    801d1a <lwip_recvfrom+0x12b>
  801d0f:	c6 45 bb 00          	movb   $0x0,-0x45(%ebp)
  801d13:	66 83 7b 0a 00       	cmpw   $0x0,0xa(%ebx)
  801d18:	75 04                	jne    801d1e <lwip_recvfrom+0x12f>
  801d1a:	c6 45 bb 01          	movb   $0x1,-0x45(%ebp)
    } else {
      done = 1;
    }

    /* If we don't peek the incoming message... */
    if ((flags & MSG_PEEK)==0) {
  801d1e:	83 7d b4 00          	cmpl   $0x0,-0x4c(%ebp)
  801d22:	75 39                	jne    801d5d <lwip_recvfrom+0x16e>
      /* If this is a TCP socket, check if there is data left in the
         buffer. If so, it should be saved in the sock structure for next
         time around. */
      if ((sock->conn->type == NETCONN_TCP) && (buflen - copylen > 0)) {
  801d24:	8b 03                	mov    (%ebx),%eax
  801d26:	83 38 10             	cmpl   $0x10,(%eax)
  801d29:	75 13                	jne    801d3e <lwip_recvfrom+0x14f>
  801d2b:	8b 45 bc             	mov    -0x44(%ebp),%eax
  801d2e:	2b 45 c0             	sub    -0x40(%ebp),%eax
  801d31:	85 c0                	test   %eax,%eax
  801d33:	7e 09                	jle    801d3e <lwip_recvfrom+0x14f>
        sock->lastdata = buf;
  801d35:	89 73 04             	mov    %esi,0x4(%ebx)
        sock->lastoffset += copylen;
  801d38:	66 01 7b 08          	add    %di,0x8(%ebx)
    /* If we don't peek the incoming message... */
    if ((flags & MSG_PEEK)==0) {
      /* If this is a TCP socket, check if there is data left in the
         buffer. If so, it should be saved in the sock structure for next
         time around. */
      if ((sock->conn->type == NETCONN_TCP) && (buflen - copylen > 0)) {
  801d3c:	eb 15                	jmp    801d53 <lwip_recvfrom+0x164>
        sock->lastdata = buf;
        sock->lastoffset += copylen;
        LWIP_DEBUGF(SOCKETS_DEBUG, ("lwip_recvfrom: lastdata now netbuf=%p\n", (void*)buf));
      } else {
        sock->lastdata = NULL;
  801d3e:	c7 43 04 00 00 00 00 	movl   $0x0,0x4(%ebx)
        sock->lastoffset = 0;
  801d45:	66 c7 43 08 00 00    	movw   $0x0,0x8(%ebx)
        LWIP_DEBUGF(SOCKETS_DEBUG, ("lwip_recvfrom: deleting netbuf=%p\n", (void*)buf));
        netbuf_delete(buf);
  801d4b:	89 34 24             	mov    %esi,(%esp)
  801d4e:	e8 a3 0c 00 00       	call   8029f6 <netbuf_delete>
      }
    } else {
      done = 1;
    }
  } while (!done);
  801d53:	80 7d bb 00          	cmpb   $0x0,-0x45(%ebp)
  801d57:	0f 84 c9 fe ff ff    	je     801c26 <lwip_recvfrom+0x37>

  /* Check to see from where the data was.*/
  if (from && fromlen) {
  801d5d:	83 7d 18 00          	cmpl   $0x0,0x18(%ebp)
  801d61:	0f 84 a7 00 00 00    	je     801e0e <lwip_recvfrom+0x21f>
  801d67:	83 7d 1c 00          	cmpl   $0x0,0x1c(%ebp)
  801d6b:	0f 84 9d 00 00 00    	je     801e0e <lwip_recvfrom+0x21f>
    struct sockaddr_in sin;

    if (netconn_type(sock->conn) == NETCONN_TCP) {
  801d71:	8b 03                	mov    (%ebx),%eax
  801d73:	89 04 24             	mov    %eax,(%esp)
  801d76:	e8 b1 98 00 00       	call   80b62c <netconn_type>
  801d7b:	83 f8 10             	cmp    $0x10,%eax
  801d7e:	75 22                	jne    801da2 <lwip_recvfrom+0x1b3>
      addr = (struct ip_addr*)&(sin.sin_addr.s_addr);
  801d80:	8d 7d d8             	lea    -0x28(%ebp),%edi
      netconn_getaddr(sock->conn, addr, &port, 0);
  801d83:	c7 44 24 0c 00 00 00 	movl   $0x0,0xc(%esp)
  801d8a:	00 
  801d8b:	8d 45 e6             	lea    -0x1a(%ebp),%eax
  801d8e:	89 44 24 08          	mov    %eax,0x8(%esp)
  801d92:	89 7c 24 04          	mov    %edi,0x4(%esp)
  801d96:	8b 03                	mov    (%ebx),%eax
  801d98:	89 04 24             	mov    %eax,(%esp)
  801d9b:	e8 3f 9b 00 00       	call   80b8df <netconn_getaddr>
  801da0:	eb 0b                	jmp    801dad <lwip_recvfrom+0x1be>
    } else {
      addr = netbuf_fromaddr(buf);
  801da2:	8b 7e 08             	mov    0x8(%esi),%edi
      port = netbuf_fromport(buf);
  801da5:	0f b7 46 0c          	movzwl 0xc(%esi),%eax
  801da9:	66 89 45 e6          	mov    %ax,-0x1a(%ebp)
    }

    memset(&sin, 0, sizeof(sin));
  801dad:	c7 44 24 08 10 00 00 	movl   $0x10,0x8(%esp)
  801db4:	00 
  801db5:	c7 44 24 04 00 00 00 	movl   $0x0,0x4(%esp)
  801dbc:	00 
  801dbd:	8d 45 d4             	lea    -0x2c(%ebp),%eax
  801dc0:	89 04 24             	mov    %eax,(%esp)
  801dc3:	e8 88 dc 00 00       	call   80fa50 <memset>
    sin.sin_len = sizeof(sin);
  801dc8:	c6 45 d4 10          	movb   $0x10,-0x2c(%ebp)
    sin.sin_family = AF_INET;
  801dcc:	c6 45 d5 02          	movb   $0x2,-0x2b(%ebp)
    sin.sin_port = htons(port);
  801dd0:	0f b7 45 e6          	movzwl -0x1a(%ebp),%eax
  801dd4:	89 04 24             	mov    %eax,(%esp)
  801dd7:	e8 83 60 00 00       	call   807e5f <htons>
  801ddc:	66 89 45 d6          	mov    %ax,-0x2a(%ebp)
    sin.sin_addr.s_addr = addr->addr;
  801de0:	8b 07                	mov    (%edi),%eax
  801de2:	89 45 d8             	mov    %eax,-0x28(%ebp)

    if (*fromlen > sizeof(sin))
  801de5:	8b 55 1c             	mov    0x1c(%ebp),%edx
  801de8:	83 3a 10             	cmpl   $0x10,(%edx)
  801deb:	76 06                	jbe    801df3 <lwip_recvfrom+0x204>
      *fromlen = sizeof(sin);
  801ded:	c7 02 10 00 00 00    	movl   $0x10,(%edx)

    SMEMCPY(from, &sin, *fromlen);
  801df3:	8b 4d 1c             	mov    0x1c(%ebp),%ecx
  801df6:	8b 01                	mov    (%ecx),%eax
  801df8:	89 44 24 08          	mov    %eax,0x8(%esp)
  801dfc:	8d 45 d4             	lea    -0x2c(%ebp),%eax
  801dff:	89 44 24 04          	mov    %eax,0x4(%esp)
  801e03:	8b 45 18             	mov    0x18(%ebp),%eax
  801e06:	89 04 24             	mov    %eax,(%esp)
  801e09:	e8 1d dd 00 00       	call   80fb2b <memcpy>
    //ip_addr_debug_print(SOCKETS_DEBUG, addr);
    LWIP_DEBUGF(SOCKETS_DEBUG, (" port=%u len=%u\n", port, off));
#endif /*  SOCKETS_DEBUG */
  }

  sock_set_errno(sock, 0);
  801e0e:	c7 43 10 00 00 00 00 	movl   $0x0,0x10(%ebx)
  801e15:	c7 05 e0 b1 b3 00 00 	movl   $0x0,0xb3b1e0
  801e1c:	00 00 00 
  return off;
  801e1f:	0f b7 45 c6          	movzwl -0x3a(%ebp),%eax
}
  801e23:	83 c4 5c             	add    $0x5c,%esp
  801e26:	5b                   	pop    %ebx
  801e27:	5e                   	pop    %esi
  801e28:	5f                   	pop    %edi
  801e29:	5d                   	pop    %ebp
  801e2a:	c3                   	ret    

00801e2b <lwip_recv>:
  return lwip_recvfrom(s, mem, len, 0, NULL, NULL);
}

int
lwip_recv(int s, void *mem, int len, unsigned int flags)
{
  801e2b:	55                   	push   %ebp
  801e2c:	89 e5                	mov    %esp,%ebp
  801e2e:	83 ec 28             	sub    $0x28,%esp
  return lwip_recvfrom(s, mem, len, flags, NULL, NULL);
  801e31:	c7 44 24 14 00 00 00 	movl   $0x0,0x14(%esp)
  801e38:	00 
  801e39:	c7 44 24 10 00 00 00 	movl   $0x0,0x10(%esp)
  801e40:	00 
  801e41:	8b 45 14             	mov    0x14(%ebp),%eax
  801e44:	89 44 24 0c          	mov    %eax,0xc(%esp)
  801e48:	8b 45 10             	mov    0x10(%ebp),%eax
  801e4b:	89 44 24 08          	mov    %eax,0x8(%esp)
  801e4f:	8b 45 0c             	mov    0xc(%ebp),%eax
  801e52:	89 44 24 04          	mov    %eax,0x4(%esp)
  801e56:	8b 45 08             	mov    0x8(%ebp),%eax
  801e59:	89 04 24             	mov    %eax,(%esp)
  801e5c:	e8 8e fd ff ff       	call   801bef <lwip_recvfrom>
}
  801e61:	c9                   	leave  
  801e62:	c3                   	ret    

00801e63 <lwip_read>:
  return off;
}

int
lwip_read(int s, void *mem, int len)
{
  801e63:	55                   	push   %ebp
  801e64:	89 e5                	mov    %esp,%ebp
  801e66:	83 ec 28             	sub    $0x28,%esp
  return lwip_recvfrom(s, mem, len, 0, NULL, NULL);
  801e69:	c7 44 24 14 00 00 00 	movl   $0x0,0x14(%esp)
  801e70:	00 
  801e71:	c7 44 24 10 00 00 00 	movl   $0x0,0x10(%esp)
  801e78:	00 
  801e79:	c7 44 24 0c 00 00 00 	movl   $0x0,0xc(%esp)
  801e80:	00 
  801e81:	8b 45 10             	mov    0x10(%ebp),%eax
  801e84:	89 44 24 08          	mov    %eax,0x8(%esp)
  801e88:	8b 45 0c             	mov    0xc(%ebp),%eax
  801e8b:	89 44 24 04          	mov    %eax,0x4(%esp)
  801e8f:	8b 45 08             	mov    0x8(%ebp),%eax
  801e92:	89 04 24             	mov    %eax,(%esp)
  801e95:	e8 55 fd ff ff       	call   801bef <lwip_recvfrom>
}
  801e9a:	c9                   	leave  
  801e9b:	c3                   	ret    

00801e9c <lwip_close>:
  return 0;
}

int
lwip_close(int s)
{
  801e9c:	55                   	push   %ebp
  801e9d:	89 e5                	mov    %esp,%ebp
  801e9f:	53                   	push   %ebx
  801ea0:	83 ec 14             	sub    $0x14,%esp
  struct lwip_socket *sock;

  LWIP_DEBUGF(SOCKETS_DEBUG, ("lwip_close(%d)\n", s));

  sock = get_socket(s);
  801ea3:	8b 45 08             	mov    0x8(%ebp),%eax
  801ea6:	e8 75 eb ff ff       	call   800a20 <get_socket>
  801eab:	89 c3                	mov    %eax,%ebx
  if (!sock) {
  801ead:	b8 ff ff ff ff       	mov    $0xffffffff,%eax
  801eb2:	85 db                	test   %ebx,%ebx
  801eb4:	74 5c                	je     801f12 <lwip_close+0x76>
    return -1;
  }

  netconn_delete(sock->conn);
  801eb6:	8b 03                	mov    (%ebx),%eax
  801eb8:	89 04 24             	mov    %eax,(%esp)
  801ebb:	e8 f4 9c 00 00       	call   80bbb4 <netconn_delete>

  sys_sem_wait(socksem);
  801ec0:	a1 e4 52 81 00       	mov    0x8152e4,%eax
  801ec5:	89 04 24             	mov    %eax,(%esp)
  801ec8:	e8 0c 3a 00 00       	call   8058d9 <sys_sem_wait>
  if (sock->lastdata) {
  801ecd:	8b 43 04             	mov    0x4(%ebx),%eax
  801ed0:	85 c0                	test   %eax,%eax
  801ed2:	74 08                	je     801edc <lwip_close+0x40>
    netbuf_delete(sock->lastdata);
  801ed4:	89 04 24             	mov    %eax,(%esp)
  801ed7:	e8 1a 0b 00 00       	call   8029f6 <netbuf_delete>
  }
  sock->lastdata   = NULL;
  801edc:	c7 43 04 00 00 00 00 	movl   $0x0,0x4(%ebx)
  sock->lastoffset = 0;
  801ee3:	66 c7 43 08 00 00    	movw   $0x0,0x8(%ebx)
  sock->conn       = NULL;
  801ee9:	c7 03 00 00 00 00    	movl   $0x0,(%ebx)
  sock_set_errno(sock, 0);
  801eef:	c7 43 10 00 00 00 00 	movl   $0x0,0x10(%ebx)
  801ef6:	c7 05 e0 b1 b3 00 00 	movl   $0x0,0xb3b1e0
  801efd:	00 00 00 
  sys_sem_signal(socksem);
  801f00:	a1 e4 52 81 00       	mov    0x8152e4,%eax
  801f05:	89 04 24             	mov    %eax,(%esp)
  801f08:	e8 64 8d 00 00       	call   80ac71 <sys_sem_signal>
  801f0d:	b8 00 00 00 00       	mov    $0x0,%eax
  return 0;
}
  801f12:	83 c4 14             	add    $0x14,%esp
  801f15:	5b                   	pop    %ebx
  801f16:	5d                   	pop    %ebp
  801f17:	c3                   	ret    

00801f18 <lwip_shutdown>:
 * Unimplemented: Close one end of a full-duplex connection.
 * Currently, the full connection is closed.
 */
int
lwip_shutdown(int s, int how)
{
  801f18:	55                   	push   %ebp
  801f19:	89 e5                	mov    %esp,%ebp
  801f1b:	83 ec 18             	sub    $0x18,%esp
  LWIP_UNUSED_ARG(how);
  LWIP_DEBUGF(SOCKETS_DEBUG, ("lwip_shutdown(%d, how=%d)\n", s, how));
  return lwip_close(s); /* XXX temporary hack until proper implementation */
  801f1e:	8b 45 08             	mov    0x8(%ebp),%eax
  801f21:	89 04 24             	mov    %eax,(%esp)
  801f24:	e8 73 ff ff ff       	call   801e9c <lwip_close>
}
  801f29:	c9                   	leave  
  801f2a:	c3                   	ret    

00801f2b <lwip_listen>:
 * @param backlog (ATTENTION: need TCP_LISTEN_BACKLOG=1)
 * @return 0 on success, non-zero on failure
 */
int
lwip_listen(int s, int backlog)
{
  801f2b:	55                   	push   %ebp
  801f2c:	89 e5                	mov    %esp,%ebp
  801f2e:	56                   	push   %esi
  801f2f:	53                   	push   %ebx
  801f30:	83 ec 10             	sub    $0x10,%esp
  801f33:	8b 75 0c             	mov    0xc(%ebp),%esi
  struct lwip_socket *sock;
  err_t err;

  LWIP_DEBUGF(SOCKETS_DEBUG, ("lwip_listen(%d, backlog=%d)\n", s, backlog));

  sock = get_socket(s);
  801f36:	8b 45 08             	mov    0x8(%ebp),%eax
  801f39:	e8 e2 ea ff ff       	call   800a20 <get_socket>
  801f3e:	89 c3                	mov    %eax,%ebx
  if (!sock)
  801f40:	b8 ff ff ff ff       	mov    $0xffffffff,%eax
  801f45:	85 db                	test   %ebx,%ebx
  801f47:	74 69                	je     801fb2 <lwip_listen+0x87>
  801f49:	85 f6                	test   %esi,%esi
  801f4b:	b8 00 00 00 00       	mov    $0x0,%eax
  801f50:	0f 48 f0             	cmovs  %eax,%esi
  }
  if (backlog > 0xff) {
    backlog = 0xff;
  }

  err = netconn_listen_with_backlog(sock->conn, backlog);
  801f53:	81 fe ff 00 00 00    	cmp    $0xff,%esi
  801f59:	b0 ff                	mov    $0xff,%al
  801f5b:	0f 4f f0             	cmovg  %eax,%esi
  801f5e:	81 e6 ff 00 00 00    	and    $0xff,%esi
  801f64:	89 74 24 04          	mov    %esi,0x4(%esp)
  801f68:	8b 03                	mov    (%ebx),%eax
  801f6a:	89 04 24             	mov    %eax,(%esp)
  801f6d:	e8 2d 98 00 00       	call   80b79f <netconn_listen_with_backlog>

  if (err != ERR_OK) {
  801f72:	84 c0                	test   %al,%al
  801f74:	74 26                	je     801f9c <lwip_listen+0x71>
    LWIP_DEBUGF(SOCKETS_DEBUG, ("lwip_listen(%d) failed, err=%d\n", s, err));
    sock_set_errno(sock, err_to_errno(err));
  801f76:	0f be c0             	movsbl %al,%eax
  801f79:	f7 d8                	neg    %eax
  801f7b:	ba 05 00 00 00       	mov    $0x5,%edx
  801f80:	83 f8 0e             	cmp    $0xe,%eax
  801f83:	77 07                	ja     801f8c <lwip_listen+0x61>
  801f85:	8b 14 85 e0 12 81 00 	mov    0x8112e0(,%eax,4),%edx
  801f8c:	89 53 10             	mov    %edx,0x10(%ebx)
  801f8f:	89 15 e0 b1 b3 00    	mov    %edx,0xb3b1e0
  801f95:	b8 ff ff ff ff       	mov    $0xffffffff,%eax
    return -1;
  801f9a:	eb 16                	jmp    801fb2 <lwip_listen+0x87>
  }

  sock_set_errno(sock, 0);
  801f9c:	c7 43 10 00 00 00 00 	movl   $0x0,0x10(%ebx)
  801fa3:	c7 05 e0 b1 b3 00 00 	movl   $0x0,0xb3b1e0
  801faa:	00 00 00 
  801fad:	b8 00 00 00 00       	mov    $0x0,%eax
  return 0;
}
  801fb2:	83 c4 10             	add    $0x10,%esp
  801fb5:	5b                   	pop    %ebx
  801fb6:	5e                   	pop    %esi
  801fb7:	5d                   	pop    %ebp
  801fb8:	c3                   	ret    

00801fb9 <lwip_connect>:
  return 0;
}

int
lwip_connect(int s, const struct sockaddr *name, socklen_t namelen)
{
  801fb9:	55                   	push   %ebp
  801fba:	89 e5                	mov    %esp,%ebp
  801fbc:	53                   	push   %ebx
  801fbd:	83 ec 24             	sub    $0x24,%esp
  struct lwip_socket *sock;
  err_t err;

  sock = get_socket(s);
  801fc0:	8b 45 08             	mov    0x8(%ebp),%eax
  801fc3:	e8 58 ea ff ff       	call   800a20 <get_socket>
  801fc8:	89 c3                	mov    %eax,%ebx
  if (!sock)
  801fca:	b8 ff ff ff ff       	mov    $0xffffffff,%eax
  801fcf:	85 db                	test   %ebx,%ebx
  801fd1:	0f 84 95 00 00 00    	je     80206c <lwip_connect+0xb3>
    return -1;

  LWIP_ERROR("lwip_connect: invalid address", ((namelen == sizeof(struct sockaddr_in)) &&
  801fd7:	83 7d 10 10          	cmpl   $0x10,0x10(%ebp)
  801fdb:	75 09                	jne    801fe6 <lwip_connect+0x2d>
  801fdd:	8b 45 0c             	mov    0xc(%ebp),%eax
  801fe0:	80 78 01 02          	cmpb   $0x2,0x1(%eax)
  801fe4:	74 1c                	je     802002 <lwip_connect+0x49>
  801fe6:	c7 44 24 08 48 12 81 	movl   $0x811248,0x8(%esp)
  801fed:	00 
  801fee:	c7 44 24 04 86 01 00 	movl   $0x186,0x4(%esp)
  801ff5:	00 
  801ff6:	c7 04 24 06 12 81 00 	movl   $0x811206,(%esp)
  801ffd:	e8 ea d1 00 00       	call   80f1ec <_panic>
    err = netconn_disconnect(sock->conn);
  } else {
    struct ip_addr remote_addr;
    u16_t remote_port;

    remote_addr.addr = ((struct sockaddr_in *)name)->sin_addr.s_addr;
  802002:	8b 50 04             	mov    0x4(%eax),%edx
  802005:	89 55 f4             	mov    %edx,-0xc(%ebp)

    LWIP_DEBUGF(SOCKETS_DEBUG, ("lwip_connect(%d, addr=", s));
    //ip_addr_debug_print(SOCKETS_DEBUG, &remote_addr);
    LWIP_DEBUGF(SOCKETS_DEBUG, (" port=%u)\n", ntohs(remote_port)));

    err = netconn_connect(sock->conn, &remote_addr, ntohs(remote_port));
  802008:	0f b7 40 02          	movzwl 0x2(%eax),%eax
  80200c:	89 04 24             	mov    %eax,(%esp)
  80200f:	e8 58 5e 00 00       	call   807e6c <ntohs>
  802014:	0f b7 c0             	movzwl %ax,%eax
  802017:	89 44 24 08          	mov    %eax,0x8(%esp)
  80201b:	8d 45 f4             	lea    -0xc(%ebp),%eax
  80201e:	89 44 24 04          	mov    %eax,0x4(%esp)
  802022:	8b 03                	mov    (%ebx),%eax
  802024:	89 04 24             	mov    %eax,(%esp)
  802027:	e8 05 98 00 00       	call   80b831 <netconn_connect>
  }

  if (err != ERR_OK) {
  80202c:	84 c0                	test   %al,%al
  80202e:	74 26                	je     802056 <lwip_connect+0x9d>
    LWIP_DEBUGF(SOCKETS_DEBUG, ("lwip_connect(%d) failed, err=%d\n", s, err));
    sock_set_errno(sock, err_to_errno(err));
  802030:	0f be c0             	movsbl %al,%eax
  802033:	f7 d8                	neg    %eax
  802035:	ba 05 00 00 00       	mov    $0x5,%edx
  80203a:	83 f8 0e             	cmp    $0xe,%eax
  80203d:	77 07                	ja     802046 <lwip_connect+0x8d>
  80203f:	8b 14 85 e0 12 81 00 	mov    0x8112e0(,%eax,4),%edx
  802046:	89 53 10             	mov    %edx,0x10(%ebx)
  802049:	89 15 e0 b1 b3 00    	mov    %edx,0xb3b1e0
  80204f:	b8 ff ff ff ff       	mov    $0xffffffff,%eax
    return -1;
  802054:	eb 16                	jmp    80206c <lwip_connect+0xb3>
  }

  LWIP_DEBUGF(SOCKETS_DEBUG, ("lwip_connect(%d) succeeded\n", s));
  sock_set_errno(sock, 0);
  802056:	c7 43 10 00 00 00 00 	movl   $0x0,0x10(%ebx)
  80205d:	c7 05 e0 b1 b3 00 00 	movl   $0x0,0xb3b1e0
  802064:	00 00 00 
  802067:	b8 00 00 00 00       	mov    $0x0,%eax
  return 0;
}
  80206c:	83 c4 24             	add    $0x24,%esp
  80206f:	5b                   	pop    %ebx
  802070:	5d                   	pop    %ebp
  802071:	c3                   	ret    

00802072 <lwip_bind>:
  return newsock;
}

int
lwip_bind(int s, struct sockaddr *name, socklen_t namelen)
{
  802072:	55                   	push   %ebp
  802073:	89 e5                	mov    %esp,%ebp
  802075:	53                   	push   %ebx
  802076:	83 ec 24             	sub    $0x24,%esp
  struct lwip_socket *sock;
  struct ip_addr local_addr;
  u16_t local_port;
  err_t err;

  sock = get_socket(s);
  802079:	8b 45 08             	mov    0x8(%ebp),%eax
  80207c:	e8 9f e9 ff ff       	call   800a20 <get_socket>
  802081:	89 c3                	mov    %eax,%ebx
  if (!sock)
  802083:	b8 ff ff ff ff       	mov    $0xffffffff,%eax
  802088:	85 db                	test   %ebx,%ebx
  80208a:	0f 84 95 00 00 00    	je     802125 <lwip_bind+0xb3>
    return -1;

  LWIP_ERROR("lwip_bind: invalid address", ((namelen == sizeof(struct sockaddr_in)) &&
  802090:	83 7d 10 10          	cmpl   $0x10,0x10(%ebp)
  802094:	75 09                	jne    80209f <lwip_bind+0x2d>
  802096:	8b 45 0c             	mov    0xc(%ebp),%eax
  802099:	80 78 01 02          	cmpb   $0x2,0x1(%eax)
  80209d:	74 1c                	je     8020bb <lwip_bind+0x49>
  80209f:	c7 44 24 08 66 12 81 	movl   $0x811266,0x8(%esp)
  8020a6:	00 
  8020a7:	c7 44 24 04 4a 01 00 	movl   $0x14a,0x4(%esp)
  8020ae:	00 
  8020af:	c7 04 24 06 12 81 00 	movl   $0x811206,(%esp)
  8020b6:	e8 31 d1 00 00       	call   80f1ec <_panic>
             ((((struct sockaddr_in *)name)->sin_family) == AF_INET)),
             sock_set_errno(sock, err_to_errno(ERR_ARG)); return -1;);

  local_addr.addr = ((struct sockaddr_in *)name)->sin_addr.s_addr;
  8020bb:	8b 50 04             	mov    0x4(%eax),%edx
  8020be:	89 55 f4             	mov    %edx,-0xc(%ebp)

  LWIP_DEBUGF(SOCKETS_DEBUG, ("lwip_bind(%d, addr=", s));
  //ip_addr_debug_print(SOCKETS_DEBUG, &local_addr);
  LWIP_DEBUGF(SOCKETS_DEBUG, (" port=%u)\n", ntohs(local_port)));

  err = netconn_bind(sock->conn, &local_addr, ntohs(local_port));
  8020c1:	0f b7 40 02          	movzwl 0x2(%eax),%eax
  8020c5:	89 04 24             	mov    %eax,(%esp)
  8020c8:	e8 9f 5d 00 00       	call   807e6c <ntohs>
  8020cd:	0f b7 c0             	movzwl %ax,%eax
  8020d0:	89 44 24 08          	mov    %eax,0x8(%esp)
  8020d4:	8d 45 f4             	lea    -0xc(%ebp),%eax
  8020d7:	89 44 24 04          	mov    %eax,0x4(%esp)
  8020db:	8b 03                	mov    (%ebx),%eax
  8020dd:	89 04 24             	mov    %eax,(%esp)
  8020e0:	e8 a3 97 00 00       	call   80b888 <netconn_bind>

  if (err != ERR_OK) {
  8020e5:	84 c0                	test   %al,%al
  8020e7:	74 26                	je     80210f <lwip_bind+0x9d>
    LWIP_DEBUGF(SOCKETS_DEBUG, ("lwip_bind(%d) failed, err=%d\n", s, err));
    sock_set_errno(sock, err_to_errno(err));
  8020e9:	0f be c0             	movsbl %al,%eax
  8020ec:	f7 d8                	neg    %eax
  8020ee:	ba 05 00 00 00       	mov    $0x5,%edx
  8020f3:	83 f8 0e             	cmp    $0xe,%eax
  8020f6:	77 07                	ja     8020ff <lwip_bind+0x8d>
  8020f8:	8b 14 85 e0 12 81 00 	mov    0x8112e0(,%eax,4),%edx
  8020ff:	89 53 10             	mov    %edx,0x10(%ebx)
  802102:	89 15 e0 b1 b3 00    	mov    %edx,0xb3b1e0
  802108:	b8 ff ff ff ff       	mov    $0xffffffff,%eax
    return -1;
  80210d:	eb 16                	jmp    802125 <lwip_bind+0xb3>
  }

  LWIP_DEBUGF(SOCKETS_DEBUG, ("lwip_bind(%d) succeeded\n", s));
  sock_set_errno(sock, 0);
  80210f:	c7 43 10 00 00 00 00 	movl   $0x0,0x10(%ebx)
  802116:	c7 05 e0 b1 b3 00 00 	movl   $0x0,0xb3b1e0
  80211d:	00 00 00 
  802120:	b8 00 00 00 00       	mov    $0x0,%eax
  return 0;
}
  802125:	83 c4 24             	add    $0x24,%esp
  802128:	5b                   	pop    %ebx
  802129:	5d                   	pop    %ebp
  80212a:	c3                   	ret    

0080212b <lwip_accept>:
 * Exceptions are documented!
 */

int
lwip_accept(int s, struct sockaddr *addr, socklen_t *addrlen)
{
  80212b:	55                   	push   %ebp
  80212c:	89 e5                	mov    %esp,%ebp
  80212e:	57                   	push   %edi
  80212f:	56                   	push   %esi
  802130:	53                   	push   %ebx
  802131:	83 ec 4c             	sub    $0x4c,%esp
  int newsock;
  struct sockaddr_in sin;
  err_t err;

  LWIP_DEBUGF(SOCKETS_DEBUG, ("lwip_accept(%d)...\n", s));
  sock = get_socket(s);
  802134:	8b 45 08             	mov    0x8(%ebp),%eax
  802137:	e8 e4 e8 ff ff       	call   800a20 <get_socket>
  80213c:	89 c7                	mov    %eax,%edi
  if (!sock)
  80213e:	be ff ff ff ff       	mov    $0xffffffff,%esi
  802143:	85 c0                	test   %eax,%eax
  802145:	0f 84 ae 01 00 00    	je     8022f9 <lwip_accept+0x1ce>
    return -1;

  newconn = netconn_accept(sock->conn);
  80214b:	8b 00                	mov    (%eax),%eax
  80214d:	89 04 24             	mov    %eax,(%esp)
  802150:	e8 26 98 00 00       	call   80b97b <netconn_accept>
  802155:	89 c3                	mov    %eax,%ebx
  if (!newconn) {
  802157:	85 c0                	test   %eax,%eax
  802159:	75 2b                	jne    802186 <lwip_accept+0x5b>
    LWIP_DEBUGF(SOCKETS_DEBUG, ("lwip_accept(%d) failed, err=%d\n", s, sock->conn->err));
    sock_set_errno(sock, err_to_errno(sock->conn->err));
  80215b:	8b 07                	mov    (%edi),%eax
  80215d:	0f be 50 0c          	movsbl 0xc(%eax),%edx
  802161:	f7 da                	neg    %edx
  802163:	b8 05 00 00 00       	mov    $0x5,%eax
  802168:	83 fa 0e             	cmp    $0xe,%edx
  80216b:	77 07                	ja     802174 <lwip_accept+0x49>
  80216d:	8b 04 95 e0 12 81 00 	mov    0x8112e0(,%edx,4),%eax
  802174:	89 47 10             	mov    %eax,0x10(%edi)
  802177:	a3 e0 b1 b3 00       	mov    %eax,0xb3b1e0
  80217c:	be ff ff ff ff       	mov    $0xffffffff,%esi
    return -1;
  802181:	e9 73 01 00 00       	jmp    8022f9 <lwip_accept+0x1ce>
  }

  /* get the IP address and port of the remote host */
  err = netconn_peer(newconn, &naddr, &port);
  802186:	c7 44 24 0c 00 00 00 	movl   $0x0,0xc(%esp)
  80218d:	00 
  80218e:	8d 45 e2             	lea    -0x1e(%ebp),%eax
  802191:	89 44 24 08          	mov    %eax,0x8(%esp)
  802195:	8d 45 e4             	lea    -0x1c(%ebp),%eax
  802198:	89 44 24 04          	mov    %eax,0x4(%esp)
  80219c:	89 1c 24             	mov    %ebx,(%esp)
  80219f:	e8 3b 97 00 00       	call   80b8df <netconn_getaddr>
  8021a4:	89 c6                	mov    %eax,%esi
  if (err != ERR_OK) {
  8021a6:	84 c0                	test   %al,%al
  8021a8:	74 32                	je     8021dc <lwip_accept+0xb1>
    netconn_delete(newconn);
  8021aa:	89 1c 24             	mov    %ebx,(%esp)
  8021ad:	e8 02 9a 00 00       	call   80bbb4 <netconn_delete>
    sock_set_errno(sock, err_to_errno(err));
  8021b2:	89 f0                	mov    %esi,%eax
  8021b4:	0f be f0             	movsbl %al,%esi
  8021b7:	f7 de                	neg    %esi
  8021b9:	b8 05 00 00 00       	mov    $0x5,%eax
  8021be:	83 fe 0e             	cmp    $0xe,%esi
  8021c1:	77 07                	ja     8021ca <lwip_accept+0x9f>
  8021c3:	8b 04 b5 e0 12 81 00 	mov    0x8112e0(,%esi,4),%eax
  8021ca:	89 47 10             	mov    %eax,0x10(%edi)
  8021cd:	a3 e0 b1 b3 00       	mov    %eax,0xb3b1e0
  8021d2:	be ff ff ff ff       	mov    $0xffffffff,%esi
    return -1;
  8021d7:	e9 1d 01 00 00       	jmp    8022f9 <lwip_accept+0x1ce>
  }

  memset(&sin, 0, sizeof(sin));
  8021dc:	c7 44 24 08 10 00 00 	movl   $0x10,0x8(%esp)
  8021e3:	00 
  8021e4:	c7 44 24 04 00 00 00 	movl   $0x0,0x4(%esp)
  8021eb:	00 
  8021ec:	8d 45 d0             	lea    -0x30(%ebp),%eax
  8021ef:	89 04 24             	mov    %eax,(%esp)
  8021f2:	e8 59 d8 00 00       	call   80fa50 <memset>
  sin.sin_len = sizeof(sin);
  8021f7:	c6 45 d0 10          	movb   $0x10,-0x30(%ebp)
  sin.sin_family = AF_INET;
  8021fb:	c6 45 d1 02          	movb   $0x2,-0x2f(%ebp)
  sin.sin_port = htons(port);
  8021ff:	0f b7 45 e2          	movzwl -0x1e(%ebp),%eax
  802203:	89 04 24             	mov    %eax,(%esp)
  802206:	e8 54 5c 00 00       	call   807e5f <htons>
  80220b:	66 89 45 d2          	mov    %ax,-0x2e(%ebp)
  sin.sin_addr.s_addr = naddr.addr;
  80220f:	8b 45 e4             	mov    -0x1c(%ebp),%eax
  802212:	89 45 d4             	mov    %eax,-0x2c(%ebp)

  if (*addrlen > sizeof(sin))
  802215:	8b 55 10             	mov    0x10(%ebp),%edx
  802218:	83 3a 10             	cmpl   $0x10,(%edx)
  80221b:	76 06                	jbe    802223 <lwip_accept+0xf8>
    *addrlen = sizeof(sin);
  80221d:	c7 02 10 00 00 00    	movl   $0x10,(%edx)

  SMEMCPY(addr, &sin, *addrlen);
  802223:	8b 55 10             	mov    0x10(%ebp),%edx
  802226:	8b 02                	mov    (%edx),%eax
  802228:	89 44 24 08          	mov    %eax,0x8(%esp)
  80222c:	8d 45 d0             	lea    -0x30(%ebp),%eax
  80222f:	89 44 24 04          	mov    %eax,0x4(%esp)
  802233:	8b 45 0c             	mov    0xc(%ebp),%eax
  802236:	89 04 24             	mov    %eax,(%esp)
  802239:	e8 ed d8 00 00       	call   80fb2b <memcpy>

  newsock = alloc_socket(newconn);
  80223e:	89 d8                	mov    %ebx,%eax
  802240:	e8 ba f0 ff ff       	call   8012ff <alloc_socket>
  802245:	89 c6                	mov    %eax,%esi
  if (newsock == -1) {
  802247:	83 f8 ff             	cmp    $0xffffffff,%eax
  80224a:	75 1e                	jne    80226a <lwip_accept+0x13f>
    netconn_delete(newconn);
  80224c:	89 1c 24             	mov    %ebx,(%esp)
  80224f:	e8 60 99 00 00       	call   80bbb4 <netconn_delete>
    sock_set_errno(sock, ENFILE);
  802254:	c7 47 10 17 00 00 00 	movl   $0x17,0x10(%edi)
  80225b:	c7 05 e0 b1 b3 00 17 	movl   $0x17,0xb3b1e0
  802262:	00 00 00 
    return -1;
  802265:	e9 8f 00 00 00       	jmp    8022f9 <lwip_accept+0x1ce>
  }
  LWIP_ASSERT("invalid socket index", (newsock >= 0) && (newsock < NUM_SOCKETS));
  80226a:	83 fe 1f             	cmp    $0x1f,%esi
  80226d:	76 1c                	jbe    80228b <lwip_accept+0x160>
  80226f:	c7 44 24 08 81 12 81 	movl   $0x811281,0x8(%esp)
  802276:	00 
  802277:	c7 44 24 04 25 01 00 	movl   $0x125,0x4(%esp)
  80227e:	00 
  80227f:	c7 04 24 06 12 81 00 	movl   $0x811206,(%esp)
  802286:	e8 61 cf 00 00       	call   80f1ec <_panic>
  newconn->callback = event_callback;
  80228b:	c7 43 2c 9b 13 80 00 	movl   $0x80139b,0x2c(%ebx)
  nsock = &sockets[newsock];
  802292:	8d 04 80             	lea    (%eax,%eax,4),%eax
  802295:	8d 04 85 60 50 81 00 	lea    0x815060(,%eax,4),%eax
  80229c:	89 45 c4             	mov    %eax,-0x3c(%ebp)
  LWIP_ASSERT("invalid socket pointer", nsock != NULL);
  80229f:	85 c0                	test   %eax,%eax
  8022a1:	75 1c                	jne    8022bf <lwip_accept+0x194>
  8022a3:	c7 44 24 08 96 12 81 	movl   $0x811296,0x8(%esp)
  8022aa:	00 
  8022ab:	c7 44 24 04 28 01 00 	movl   $0x128,0x4(%esp)
  8022b2:	00 
  8022b3:	c7 04 24 06 12 81 00 	movl   $0x811206,(%esp)
  8022ba:	e8 2d cf 00 00       	call   80f1ec <_panic>

  sys_sem_wait(socksem);
  8022bf:	a1 e4 52 81 00       	mov    0x8152e4,%eax
  8022c4:	89 04 24             	mov    %eax,(%esp)
  8022c7:	e8 0d 36 00 00       	call   8058d9 <sys_sem_wait>
  /* See event_callback: If data comes in right away after an accept, even
   * though the server task might not have created a new socket yet.
   * In that case, newconn->socket is counted down (newconn->socket--),
   * so nsock->rcvevent is >= 1 here!
   */
  nsock->rcvevent += -1 - newconn->socket;
  8022cc:	8b 43 1c             	mov    0x1c(%ebx),%eax
  8022cf:	f7 d0                	not    %eax
  8022d1:	8b 55 c4             	mov    -0x3c(%ebp),%edx
  8022d4:	66 01 42 0a          	add    %ax,0xa(%edx)
  newconn->socket = newsock;
  8022d8:	89 73 1c             	mov    %esi,0x1c(%ebx)
  sys_sem_signal(socksem);
  8022db:	a1 e4 52 81 00       	mov    0x8152e4,%eax
  8022e0:	89 04 24             	mov    %eax,(%esp)
  8022e3:	e8 89 89 00 00       	call   80ac71 <sys_sem_signal>

  LWIP_DEBUGF(SOCKETS_DEBUG, ("lwip_accept(%d) returning new sock=%d addr=", s, newsock));
  //ip_addr_debug_print(SOCKETS_DEBUG, &naddr);
  LWIP_DEBUGF(SOCKETS_DEBUG, (" port=%u\n", port));

  sock_set_errno(sock, 0);
  8022e8:	c7 47 10 00 00 00 00 	movl   $0x0,0x10(%edi)
  8022ef:	c7 05 e0 b1 b3 00 00 	movl   $0x0,0xb3b1e0
  8022f6:	00 00 00 
  return newsock;
}
  8022f9:	89 f0                	mov    %esi,%eax
  8022fb:	83 c4 4c             	add    $0x4c,%esp
  8022fe:	5b                   	pop    %ebx
  8022ff:	5e                   	pop    %esi
  802300:	5f                   	pop    %edi
  802301:	5d                   	pop    %ebp
  802302:	c3                   	ret    
	...

00802310 <pbuf_free_int>:
 *
 * @param p The pbuf (chain) to be dereferenced.
 */
static void
pbuf_free_int(void *p)
{
  802310:	55                   	push   %ebp
  802311:	89 e5                	mov    %esp,%ebp
  802313:	83 ec 18             	sub    $0x18,%esp
  struct pbuf *q = p;
  pbuf_free(q);
  802316:	8b 45 08             	mov    0x8(%ebp),%eax
  802319:	89 04 24             	mov    %eax,(%esp)
  80231c:	e8 03 2f 00 00       	call   805224 <pbuf_free>
}
  802321:	c9                   	leave  
  802322:	c3                   	ret    

00802323 <tcpip_init>:
 * @param initfunc a function to call when tcpip_thread is running and finished initializing
 * @param arg argument to pass to initfunc
 */
void
tcpip_init(void (* initfunc)(void *), void *arg)
{
  802323:	55                   	push   %ebp
  802324:	89 e5                	mov    %esp,%ebp
  802326:	83 ec 28             	sub    $0x28,%esp
  lwip_init();
  802329:	e8 62 08 00 00       	call   802b90 <lwip_init>

  tcpip_init_done = initfunc;
  80232e:	8b 45 08             	mov    0x8(%ebp),%eax
  802331:	a3 ec 52 81 00       	mov    %eax,0x8152ec
  tcpip_init_done_arg = arg;
  802336:	8b 45 0c             	mov    0xc(%ebp),%eax
  802339:	a3 f0 52 81 00       	mov    %eax,0x8152f0
  mbox = sys_mbox_new(TCPIP_MBOX_SIZE);
  80233e:	c7 04 24 00 00 00 00 	movl   $0x0,(%esp)
  802345:	e8 0f 88 00 00       	call   80ab59 <sys_mbox_new>
  80234a:	a3 00 40 81 00       	mov    %eax,0x814000
#if LWIP_TCPIP_CORE_LOCKING
  lock_tcpip_core = sys_sem_new(1);
#endif /* LWIP_TCPIP_CORE_LOCKING */

  sys_thread_new(TCPIP_THREAD_NAME, tcpip_thread, NULL, TCPIP_THREAD_STACKSIZE, TCPIP_THREAD_PRIO);
  80234f:	c7 44 24 10 01 00 00 	movl   $0x1,0x10(%esp)
  802356:	00 
  802357:	c7 44 24 0c 00 00 00 	movl   $0x0,0xc(%esp)
  80235e:	00 
  80235f:	c7 44 24 08 00 00 00 	movl   $0x0,0x8(%esp)
  802366:	00 
  802367:	c7 44 24 04 c6 23 80 	movl   $0x8023c6,0x4(%esp)
  80236e:	00 
  80236f:	c7 04 24 1c 13 81 00 	movl   $0x81131c,(%esp)
  802376:	e8 76 85 00 00       	call   80a8f1 <sys_thread_new>
}
  80237b:	c9                   	leave  
  80237c:	c3                   	ret    

0080237d <tcp_timer_needed>:
 * the reason is to have the TCP timer only running when
 * there are active (or time-wait) PCBs.
 */
void
tcp_timer_needed(void)
{
  80237d:	55                   	push   %ebp
  80237e:	89 e5                	mov    %esp,%ebp
  802380:	83 ec 18             	sub    $0x18,%esp
  /* timer is off but needed again? */
  if (!tcpip_tcp_timer_active && (tcp_active_pcbs || tcp_tw_pcbs)) {
  802383:	83 3d f4 52 81 00 00 	cmpl   $0x0,0x8152f4
  80238a:	75 38                	jne    8023c4 <tcp_timer_needed+0x47>
  80238c:	83 3d 3c b2 b3 00 00 	cmpl   $0x0,0xb3b23c
  802393:	75 09                	jne    80239e <tcp_timer_needed+0x21>
  802395:	83 3d 50 b2 b3 00 00 	cmpl   $0x0,0xb3b250
  80239c:	74 26                	je     8023c4 <tcp_timer_needed+0x47>
    /* enable and start timer */
    tcpip_tcp_timer_active = 1;
  80239e:	c7 05 f4 52 81 00 01 	movl   $0x1,0x8152f4
  8023a5:	00 00 00 
    sys_timeout(TCP_TMR_INTERVAL, tcpip_tcp_timer, NULL);
  8023a8:	c7 44 24 08 00 00 00 	movl   $0x0,0x8(%esp)
  8023af:	00 
  8023b0:	c7 44 24 04 d6 27 80 	movl   $0x8027d6,0x4(%esp)
  8023b7:	00 
  8023b8:	c7 04 24 fa 00 00 00 	movl   $0xfa,(%esp)
  8023bf:	e8 56 34 00 00       	call   80581a <sys_timeout>
  }
}
  8023c4:	c9                   	leave  
  8023c5:	c3                   	ret    

008023c6 <tcpip_thread>:
 *
 * @param arg unused argument
 */
static void
tcpip_thread(void *arg)
{
  8023c6:	55                   	push   %ebp
  8023c7:	89 e5                	mov    %esp,%ebp
  8023c9:	53                   	push   %ebx
  8023ca:	83 ec 24             	sub    $0x24,%esp
  struct tcpip_msg *msg;
  LWIP_UNUSED_ARG(arg);

#if IP_REASSEMBLY
  sys_timeout(IP_TMR_INTERVAL, ip_reass_timer, NULL);
  8023cd:	c7 44 24 08 00 00 00 	movl   $0x0,0x8(%esp)
  8023d4:	00 
  8023d5:	c7 44 24 04 b3 25 80 	movl   $0x8025b3,0x4(%esp)
  8023dc:	00 
  8023dd:	c7 04 24 e8 03 00 00 	movl   $0x3e8,(%esp)
  8023e4:	e8 31 34 00 00       	call   80581a <sys_timeout>
#endif /* IP_REASSEMBLY */
#if LWIP_ARP
  sys_timeout(ARP_TMR_INTERVAL, arp_timer, NULL);
  8023e9:	c7 44 24 08 00 00 00 	movl   $0x0,0x8(%esp)
  8023f0:	00 
  8023f1:	c7 44 24 04 8a 25 80 	movl   $0x80258a,0x4(%esp)
  8023f8:	00 
  8023f9:	c7 04 24 88 13 00 00 	movl   $0x1388,(%esp)
  802400:	e8 15 34 00 00       	call   80581a <sys_timeout>
#endif /* LWIP_ARP */
#if LWIP_DHCP
  sys_timeout(DHCP_COARSE_TIMER_MSECS, dhcp_timer_coarse, NULL);
  802405:	c7 44 24 08 00 00 00 	movl   $0x0,0x8(%esp)
  80240c:	00 
  80240d:	c7 44 24 04 61 25 80 	movl   $0x802561,0x4(%esp)
  802414:	00 
  802415:	c7 04 24 60 ea 00 00 	movl   $0xea60,(%esp)
  80241c:	e8 f9 33 00 00       	call   80581a <sys_timeout>
  sys_timeout(DHCP_FINE_TIMER_MSECS, dhcp_timer_fine, NULL);
  802421:	c7 44 24 08 00 00 00 	movl   $0x0,0x8(%esp)
  802428:	00 
  802429:	c7 44 24 04 38 25 80 	movl   $0x802538,0x4(%esp)
  802430:	00 
  802431:	c7 04 24 f4 01 00 00 	movl   $0x1f4,(%esp)
  802438:	e8 dd 33 00 00       	call   80581a <sys_timeout>
#endif /* LWIP_IGMP */
#if LWIP_DNS
  sys_timeout(DNS_TMR_INTERVAL, dns_timer, NULL);
#endif /* LWIP_DNS */

  if (tcpip_init_done != NULL) {
  80243d:	a1 ec 52 81 00       	mov    0x8152ec,%eax
  802442:	85 c0                	test   %eax,%eax
  802444:	74 0b                	je     802451 <tcpip_thread+0x8b>
    tcpip_init_done(tcpip_init_done_arg);
  802446:	8b 15 f0 52 81 00    	mov    0x8152f0,%edx
  80244c:	89 14 24             	mov    %edx,(%esp)
  80244f:	ff d0                	call   *%eax
  }

  LOCK_TCPIP_CORE();
  while (1) {                          /* MAIN Loop */
    sys_mbox_fetch(mbox, (void *)&msg);
  802451:	8d 5d f4             	lea    -0xc(%ebp),%ebx
  802454:	89 5c 24 04          	mov    %ebx,0x4(%esp)
  802458:	a1 00 40 81 00       	mov    0x814000,%eax
  80245d:	89 04 24             	mov    %eax,(%esp)
  802460:	e8 94 35 00 00       	call   8059f9 <sys_mbox_fetch>
    switch (msg->type) {
  802465:	8b 45 f4             	mov    -0xc(%ebp),%eax
  802468:	8b 10                	mov    (%eax),%edx
  80246a:	83 fa 01             	cmp    $0x1,%edx
  80246d:	74 20                	je     80248f <tcpip_thread+0xc9>
  80246f:	83 fa 01             	cmp    $0x1,%edx
  802472:	72 0e                	jb     802482 <tcpip_thread+0xbc>
  802474:	83 fa 02             	cmp    $0x2,%edx
  802477:	74 54                	je     8024cd <tcpip_thread+0x107>
  802479:	83 fa 03             	cmp    $0x3,%edx
  80247c:	75 d6                	jne    802454 <tcpip_thread+0x8e>
  80247e:	66 90                	xchg   %ax,%ax
  802480:	eb 6c                	jmp    8024ee <tcpip_thread+0x128>
#if LWIP_NETCONN
    case TCPIP_MSG_API:
      LWIP_DEBUGF(TCPIP_DEBUG, ("tcpip_thread: API message %p\n", (void *)msg));
      msg->msg.apimsg->function(&(msg->msg.apimsg->msg));
  802482:	8b 40 08             	mov    0x8(%eax),%eax
  802485:	8d 50 04             	lea    0x4(%eax),%edx
  802488:	89 14 24             	mov    %edx,(%esp)
  80248b:	ff 10                	call   *(%eax)
      break;
  80248d:	eb c5                	jmp    802454 <tcpip_thread+0x8e>
#endif /* LWIP_NETCONN */

    case TCPIP_MSG_INPKT:
      LWIP_DEBUGF(TCPIP_DEBUG, ("tcpip_thread: PACKET %p\n", (void *)msg));
#if LWIP_ARP
      if (msg->msg.inp.netif->flags & NETIF_FLAG_ETHARP) {
  80248f:	8b 50 0c             	mov    0xc(%eax),%edx
  802492:	f6 42 2e 20          	testb  $0x20,0x2e(%edx)
  802496:	74 11                	je     8024a9 <tcpip_thread+0xe3>
        ethernet_input(msg->msg.inp.p, msg->msg.inp.netif);
  802498:	89 54 24 04          	mov    %edx,0x4(%esp)
  80249c:	8b 40 08             	mov    0x8(%eax),%eax
  80249f:	89 04 24             	mov    %eax,(%esp)
  8024a2:	e8 77 80 00 00       	call   80a51e <ethernet_input>
  8024a7:	eb 0f                	jmp    8024b8 <tcpip_thread+0xf2>
      } else
#endif /* LWIP_ARP */
      { ip_input(msg->msg.inp.p, msg->msg.inp.netif);
  8024a9:	89 54 24 04          	mov    %edx,0x4(%esp)
  8024ad:	8b 40 08             	mov    0x8(%eax),%eax
  8024b0:	89 04 24             	mov    %eax,(%esp)
  8024b3:	e8 52 49 00 00       	call   806e0a <ip_input>
      }
      memp_free(MEMP_TCPIP_MSG_INPKT, msg);
  8024b8:	8b 45 f4             	mov    -0xc(%ebp),%eax
  8024bb:	89 44 24 04          	mov    %eax,0x4(%esp)
  8024bf:	c7 04 24 09 00 00 00 	movl   $0x9,(%esp)
  8024c6:	e8 f9 25 00 00       	call   804ac4 <memp_free>
      break;
  8024cb:	eb 87                	jmp    802454 <tcpip_thread+0x8e>
      break;
#endif /* LWIP_NETIF_API */

    case TCPIP_MSG_CALLBACK:
      LWIP_DEBUGF(TCPIP_DEBUG, ("tcpip_thread: CALLBACK %p\n", (void *)msg));
      msg->msg.cb.f(msg->msg.cb.ctx);
  8024cd:	8b 50 0c             	mov    0xc(%eax),%edx
  8024d0:	89 14 24             	mov    %edx,(%esp)
  8024d3:	ff 50 08             	call   *0x8(%eax)
      memp_free(MEMP_TCPIP_MSG_API, msg);
  8024d6:	8b 45 f4             	mov    -0xc(%ebp),%eax
  8024d9:	89 44 24 04          	mov    %eax,0x4(%esp)
  8024dd:	c7 04 24 08 00 00 00 	movl   $0x8,(%esp)
  8024e4:	e8 db 25 00 00       	call   804ac4 <memp_free>
      break;
  8024e9:	e9 66 ff ff ff       	jmp    802454 <tcpip_thread+0x8e>

    case TCPIP_MSG_TIMEOUT:
      LWIP_DEBUGF(TCPIP_DEBUG, ("tcpip_thread: TIMEOUT %p\n", (void *)msg));

      if(msg->msg.tmo.msecs != 0xffffffff)
  8024ee:	8b 50 08             	mov    0x8(%eax),%edx
  8024f1:	83 fa ff             	cmp    $0xffffffff,%edx
  8024f4:	74 18                	je     80250e <tcpip_thread+0x148>
        sys_timeout (msg->msg.tmo.msecs, msg->msg.tmo.h, msg->msg.tmo.arg);
  8024f6:	8b 48 10             	mov    0x10(%eax),%ecx
  8024f9:	89 4c 24 08          	mov    %ecx,0x8(%esp)
  8024fd:	8b 40 0c             	mov    0xc(%eax),%eax
  802500:	89 44 24 04          	mov    %eax,0x4(%esp)
  802504:	89 14 24             	mov    %edx,(%esp)
  802507:	e8 0e 33 00 00       	call   80581a <sys_timeout>
  80250c:	eb 12                	jmp    802520 <tcpip_thread+0x15a>
      else
        sys_untimeout (msg->msg.tmo.h, msg->msg.tmo.arg);
  80250e:	8b 50 10             	mov    0x10(%eax),%edx
  802511:	89 54 24 04          	mov    %edx,0x4(%esp)
  802515:	8b 40 0c             	mov    0xc(%eax),%eax
  802518:	89 04 24             	mov    %eax,(%esp)
  80251b:	e8 6d 32 00 00       	call   80578d <sys_untimeout>
      memp_free(MEMP_TCPIP_MSG_API, msg);
  802520:	8b 45 f4             	mov    -0xc(%ebp),%eax
  802523:	89 44 24 04          	mov    %eax,0x4(%esp)
  802527:	c7 04 24 08 00 00 00 	movl   $0x8,(%esp)
  80252e:	e8 91 25 00 00       	call   804ac4 <memp_free>
  802533:	e9 1c ff ff ff       	jmp    802454 <tcpip_thread+0x8e>

00802538 <dhcp_timer_fine>:
 *
 * @param arg unused argument
 */
static void
dhcp_timer_fine(void *arg)
{
  802538:	55                   	push   %ebp
  802539:	89 e5                	mov    %esp,%ebp
  80253b:	83 ec 18             	sub    $0x18,%esp
  LWIP_UNUSED_ARG(arg);
  LWIP_DEBUGF(TCPIP_DEBUG, ("tcpip: dhcp_fine_tmr()\n"));
  dhcp_fine_tmr();
  80253e:	e8 c5 1e 00 00       	call   804408 <dhcp_fine_tmr>
  sys_timeout(DHCP_FINE_TIMER_MSECS, dhcp_timer_fine, NULL);
  802543:	c7 44 24 08 00 00 00 	movl   $0x0,0x8(%esp)
  80254a:	00 
  80254b:	c7 44 24 04 38 25 80 	movl   $0x802538,0x4(%esp)
  802552:	00 
  802553:	c7 04 24 f4 01 00 00 	movl   $0x1f4,(%esp)
  80255a:	e8 bb 32 00 00       	call   80581a <sys_timeout>
}
  80255f:	c9                   	leave  
  802560:	c3                   	ret    

00802561 <dhcp_timer_coarse>:
 *
 * @param arg unused argument
 */
static void
dhcp_timer_coarse(void *arg)
{
  802561:	55                   	push   %ebp
  802562:	89 e5                	mov    %esp,%ebp
  802564:	83 ec 18             	sub    $0x18,%esp
  LWIP_UNUSED_ARG(arg);
  LWIP_DEBUGF(TCPIP_DEBUG, ("tcpip: dhcp_coarse_tmr()\n"));
  dhcp_coarse_tmr();
  802567:	e8 7f 12 00 00       	call   8037eb <dhcp_coarse_tmr>
  sys_timeout(DHCP_COARSE_TIMER_MSECS, dhcp_timer_coarse, NULL);
  80256c:	c7 44 24 08 00 00 00 	movl   $0x0,0x8(%esp)
  802573:	00 
  802574:	c7 44 24 04 61 25 80 	movl   $0x802561,0x4(%esp)
  80257b:	00 
  80257c:	c7 04 24 60 ea 00 00 	movl   $0xea60,(%esp)
  802583:	e8 92 32 00 00       	call   80581a <sys_timeout>
}
  802588:	c9                   	leave  
  802589:	c3                   	ret    

0080258a <arp_timer>:
 *
 * @param arg unused argument
 */
static void
arp_timer(void *arg)
{
  80258a:	55                   	push   %ebp
  80258b:	89 e5                	mov    %esp,%ebp
  80258d:	83 ec 18             	sub    $0x18,%esp
  LWIP_UNUSED_ARG(arg);
  LWIP_DEBUGF(TCPIP_DEBUG, ("tcpip: etharp_tmr()\n"));
  etharp_tmr();
  802590:	e8 68 7b 00 00       	call   80a0fd <etharp_tmr>
  sys_timeout(ARP_TMR_INTERVAL, arp_timer, NULL);
  802595:	c7 44 24 08 00 00 00 	movl   $0x0,0x8(%esp)
  80259c:	00 
  80259d:	c7 44 24 04 8a 25 80 	movl   $0x80258a,0x4(%esp)
  8025a4:	00 
  8025a5:	c7 04 24 88 13 00 00 	movl   $0x1388,(%esp)
  8025ac:	e8 69 32 00 00       	call   80581a <sys_timeout>
}
  8025b1:	c9                   	leave  
  8025b2:	c3                   	ret    

008025b3 <ip_reass_timer>:
 *
 * @param arg unused argument
 */
static void
ip_reass_timer(void *arg)
{
  8025b3:	55                   	push   %ebp
  8025b4:	89 e5                	mov    %esp,%ebp
  8025b6:	83 ec 18             	sub    $0x18,%esp
  LWIP_UNUSED_ARG(arg);
  LWIP_DEBUGF(TCPIP_DEBUG, ("tcpip: ip_reass_tmr()\n"));
  ip_reass_tmr();
  8025b9:	e8 19 4f 00 00       	call   8074d7 <ip_reass_tmr>
  sys_timeout(IP_TMR_INTERVAL, ip_reass_timer, NULL);
  8025be:	c7 44 24 08 00 00 00 	movl   $0x0,0x8(%esp)
  8025c5:	00 
  8025c6:	c7 44 24 04 b3 25 80 	movl   $0x8025b3,0x4(%esp)
  8025cd:	00 
  8025ce:	c7 04 24 e8 03 00 00 	movl   $0x3e8,(%esp)
  8025d5:	e8 40 32 00 00       	call   80581a <sys_timeout>
}
  8025da:	c9                   	leave  
  8025db:	c3                   	ret    

008025dc <tcpip_apimsg>:
 * @param apimsg a struct containing the function to call and its parameters
 * @return ERR_OK if the function was called, another err_t if not
 */
err_t
tcpip_apimsg(struct api_msg *apimsg)
{
  8025dc:	55                   	push   %ebp
  8025dd:	89 e5                	mov    %esp,%ebp
  8025df:	53                   	push   %ebx
  8025e0:	83 ec 34             	sub    $0x34,%esp
  8025e3:	8b 5d 08             	mov    0x8(%ebp),%ebx
  struct tcpip_msg msg;
  
  if (mbox != SYS_MBOX_NULL) {
  8025e6:	8b 15 00 40 81 00    	mov    0x814000,%edx
  8025ec:	b8 f7 ff ff ff       	mov    $0xfffffff7,%eax
  8025f1:	83 fa ff             	cmp    $0xffffffff,%edx
  8025f4:	74 34                	je     80262a <tcpip_apimsg+0x4e>
    msg.type = TCPIP_MSG_API;
  8025f6:	c7 45 e4 00 00 00 00 	movl   $0x0,-0x1c(%ebp)
    msg.msg.apimsg = apimsg;
  8025fd:	89 5d ec             	mov    %ebx,-0x14(%ebp)
    sys_mbox_post(mbox, &msg);
  802600:	8d 45 e4             	lea    -0x1c(%ebp),%eax
  802603:	89 44 24 04          	mov    %eax,0x4(%esp)
  802607:	89 14 24             	mov    %edx,(%esp)
  80260a:	e8 cb 88 00 00       	call   80aeda <sys_mbox_post>
    sys_arch_sem_wait(apimsg->msg.conn->op_completed, 0);
  80260f:	c7 44 24 04 00 00 00 	movl   $0x0,0x4(%esp)
  802616:	00 
  802617:	8b 43 04             	mov    0x4(%ebx),%eax
  80261a:	8b 40 10             	mov    0x10(%eax),%eax
  80261d:	89 04 24             	mov    %eax,(%esp)
  802620:	e8 88 83 00 00       	call   80a9ad <sys_arch_sem_wait>
  802625:	b8 00 00 00 00       	mov    $0x0,%eax
    return ERR_OK;
  }
  return ERR_VAL;
}
  80262a:	83 c4 34             	add    $0x34,%esp
  80262d:	5b                   	pop    %ebx
  80262e:	5d                   	pop    %ebp
  80262f:	c3                   	ret    

00802630 <tcpip_timeout>:
  return ERR_VAL;
}

err_t
tcpip_timeout(u32_t msecs, sys_timeout_handler h, void *arg)
{
  802630:	55                   	push   %ebp
  802631:	89 e5                	mov    %esp,%ebp
  802633:	83 ec 18             	sub    $0x18,%esp
  struct tcpip_msg *msg;

  if (mbox != SYS_MBOX_NULL) {
  802636:	b8 f7 ff ff ff       	mov    $0xfffffff7,%eax
  80263b:	83 3d 00 40 81 00 ff 	cmpl   $0xffffffff,0x814000
  802642:	74 45                	je     802689 <tcpip_timeout+0x59>
    msg = memp_malloc(MEMP_TCPIP_MSG_API);
  802644:	c7 04 24 08 00 00 00 	movl   $0x8,(%esp)
  80264b:	e8 b8 24 00 00       	call   804b08 <memp_malloc>
  802650:	89 c2                	mov    %eax,%edx
    if (msg == NULL) {
  802652:	b8 ff ff ff ff       	mov    $0xffffffff,%eax
  802657:	85 d2                	test   %edx,%edx
  802659:	74 2e                	je     802689 <tcpip_timeout+0x59>
      return ERR_MEM;
    }

    msg->type = TCPIP_MSG_TIMEOUT;
  80265b:	c7 02 03 00 00 00    	movl   $0x3,(%edx)
    msg->msg.tmo.msecs = msecs;
  802661:	8b 45 08             	mov    0x8(%ebp),%eax
  802664:	89 42 08             	mov    %eax,0x8(%edx)
    msg->msg.tmo.h = h;
  802667:	8b 45 0c             	mov    0xc(%ebp),%eax
  80266a:	89 42 0c             	mov    %eax,0xc(%edx)
    msg->msg.tmo.arg = arg;
  80266d:	8b 45 10             	mov    0x10(%ebp),%eax
  802670:	89 42 10             	mov    %eax,0x10(%edx)
    sys_mbox_post(mbox, msg);
  802673:	89 54 24 04          	mov    %edx,0x4(%esp)
  802677:	a1 00 40 81 00       	mov    0x814000,%eax
  80267c:	89 04 24             	mov    %eax,(%esp)
  80267f:	e8 56 88 00 00       	call   80aeda <sys_mbox_post>
  802684:	b8 00 00 00 00       	mov    $0x0,%eax
    return ERR_OK;
  }
  return ERR_VAL;
}
  802689:	c9                   	leave  
  80268a:	c3                   	ret    

0080268b <tcpip_callback_with_block>:
 * @param block 1 to block until the request is posted, 0 to non-blocking mode
 * @return ERR_OK if the function was called, another err_t if not
 */
err_t
tcpip_callback_with_block(void (*f)(void *ctx), void *ctx, u8_t block)
{
  80268b:	55                   	push   %ebp
  80268c:	89 e5                	mov    %esp,%ebp
  80268e:	83 ec 18             	sub    $0x18,%esp
  802691:	89 5d f8             	mov    %ebx,-0x8(%ebp)
  802694:	89 75 fc             	mov    %esi,-0x4(%ebp)
  802697:	0f b6 5d 10          	movzbl 0x10(%ebp),%ebx
  struct tcpip_msg *msg;

  if (mbox != SYS_MBOX_NULL) {
  80269b:	b8 f7 ff ff ff       	mov    $0xfffffff7,%eax
  8026a0:	83 3d 00 40 81 00 ff 	cmpl   $0xffffffff,0x814000
  8026a7:	74 6f                	je     802718 <tcpip_callback_with_block+0x8d>
    msg = memp_malloc(MEMP_TCPIP_MSG_API);
  8026a9:	c7 04 24 08 00 00 00 	movl   $0x8,(%esp)
  8026b0:	e8 53 24 00 00       	call   804b08 <memp_malloc>
  8026b5:	89 c6                	mov    %eax,%esi
    if (msg == NULL) {
  8026b7:	b8 ff ff ff ff       	mov    $0xffffffff,%eax
  8026bc:	85 f6                	test   %esi,%esi
  8026be:	74 58                	je     802718 <tcpip_callback_with_block+0x8d>
      return ERR_MEM;
    }

    msg->type = TCPIP_MSG_CALLBACK;
  8026c0:	c7 06 02 00 00 00    	movl   $0x2,(%esi)
    msg->msg.cb.f = f;
  8026c6:	8b 45 08             	mov    0x8(%ebp),%eax
  8026c9:	89 46 08             	mov    %eax,0x8(%esi)
    msg->msg.cb.ctx = ctx;
  8026cc:	8b 45 0c             	mov    0xc(%ebp),%eax
  8026cf:	89 46 0c             	mov    %eax,0xc(%esi)
    if (block) {
  8026d2:	84 db                	test   %bl,%bl
  8026d4:	74 18                	je     8026ee <tcpip_callback_with_block+0x63>
      sys_mbox_post(mbox, msg);
  8026d6:	89 74 24 04          	mov    %esi,0x4(%esp)
  8026da:	a1 00 40 81 00       	mov    0x814000,%eax
  8026df:	89 04 24             	mov    %eax,(%esp)
  8026e2:	e8 f3 87 00 00       	call   80aeda <sys_mbox_post>
  8026e7:	b8 00 00 00 00       	mov    $0x0,%eax
  8026ec:	eb 2a                	jmp    802718 <tcpip_callback_with_block+0x8d>
    } else {
      if (sys_mbox_trypost(mbox, msg) != ERR_OK) {
  8026ee:	89 74 24 04          	mov    %esi,0x4(%esp)
  8026f2:	a1 00 40 81 00       	mov    0x814000,%eax
  8026f7:	89 04 24             	mov    %eax,(%esp)
  8026fa:	e8 0d 87 00 00       	call   80ae0c <sys_mbox_trypost>
  8026ff:	84 c0                	test   %al,%al
  802701:	74 15                	je     802718 <tcpip_callback_with_block+0x8d>
        memp_free(MEMP_TCPIP_MSG_API, msg);
  802703:	89 74 24 04          	mov    %esi,0x4(%esp)
  802707:	c7 04 24 08 00 00 00 	movl   $0x8,(%esp)
  80270e:	e8 b1 23 00 00       	call   804ac4 <memp_free>
  802713:	b8 ff ff ff ff       	mov    $0xffffffff,%eax
      }
    }
    return ERR_OK;
  }
  return ERR_VAL;
}
  802718:	8b 5d f8             	mov    -0x8(%ebp),%ebx
  80271b:	8b 75 fc             	mov    -0x4(%ebp),%esi
  80271e:	89 ec                	mov    %ebp,%esp
  802720:	5d                   	pop    %ebp
  802721:	c3                   	ret    

00802722 <mem_free_callback>:
 * @param m the heap memory to free
 * @return ERR_OK if callback could be enqueued, an err_t if not
 */
err_t
mem_free_callback(void *m)
{
  802722:	55                   	push   %ebp
  802723:	89 e5                	mov    %esp,%ebp
  802725:	83 ec 18             	sub    $0x18,%esp
  return tcpip_callback_with_block(mem_free, m, 0);
  802728:	c7 44 24 08 00 00 00 	movl   $0x0,0x8(%esp)
  80272f:	00 
  802730:	8b 45 08             	mov    0x8(%ebp),%eax
  802733:	89 44 24 04          	mov    %eax,0x4(%esp)
  802737:	c7 04 24 67 48 80 00 	movl   $0x804867,(%esp)
  80273e:	e8 48 ff ff ff       	call   80268b <tcpip_callback_with_block>
}
  802743:	c9                   	leave  
  802744:	c3                   	ret    

00802745 <pbuf_free_callback>:
 * @param p The pbuf (chain) to be dereferenced.
 * @return ERR_OK if callback could be enqueued, an err_t if not
 */
err_t
pbuf_free_callback(struct pbuf *p)
{
  802745:	55                   	push   %ebp
  802746:	89 e5                	mov    %esp,%ebp
  802748:	83 ec 18             	sub    $0x18,%esp
  return tcpip_callback_with_block(pbuf_free_int, p, 0);
  80274b:	c7 44 24 08 00 00 00 	movl   $0x0,0x8(%esp)
  802752:	00 
  802753:	8b 45 08             	mov    0x8(%ebp),%eax
  802756:	89 44 24 04          	mov    %eax,0x4(%esp)
  80275a:	c7 04 24 10 23 80 00 	movl   $0x802310,(%esp)
  802761:	e8 25 ff ff ff       	call   80268b <tcpip_callback_with_block>
}
  802766:	c9                   	leave  
  802767:	c3                   	ret    

00802768 <tcpip_input>:
 *          to an IP header (if netif doesn't got NETIF_FLAG_ETHARP flag)
 * @param inp the network interface on which the packet was received
 */
err_t
tcpip_input(struct pbuf *p, struct netif *inp)
{
  802768:	55                   	push   %ebp
  802769:	89 e5                	mov    %esp,%ebp
  80276b:	53                   	push   %ebx
  80276c:	83 ec 14             	sub    $0x14,%esp
  struct tcpip_msg *msg;

  if (mbox != SYS_MBOX_NULL) {
  80276f:	b8 f7 ff ff ff       	mov    $0xfffffff7,%eax
  802774:	83 3d 00 40 81 00 ff 	cmpl   $0xffffffff,0x814000
  80277b:	74 53                	je     8027d0 <tcpip_input+0x68>
    msg = memp_malloc(MEMP_TCPIP_MSG_INPKT);
  80277d:	c7 04 24 09 00 00 00 	movl   $0x9,(%esp)
  802784:	e8 7f 23 00 00       	call   804b08 <memp_malloc>
  802789:	89 c3                	mov    %eax,%ebx
    if (msg == NULL) {
  80278b:	b8 ff ff ff ff       	mov    $0xffffffff,%eax
  802790:	85 db                	test   %ebx,%ebx
  802792:	74 3c                	je     8027d0 <tcpip_input+0x68>
      return ERR_MEM;
    }

    msg->type = TCPIP_MSG_INPKT;
  802794:	c7 03 01 00 00 00    	movl   $0x1,(%ebx)
    msg->msg.inp.p = p;
  80279a:	8b 45 08             	mov    0x8(%ebp),%eax
  80279d:	89 43 08             	mov    %eax,0x8(%ebx)
    msg->msg.inp.netif = inp;
  8027a0:	8b 45 0c             	mov    0xc(%ebp),%eax
  8027a3:	89 43 0c             	mov    %eax,0xc(%ebx)
    if (sys_mbox_trypost(mbox, msg) != ERR_OK) {
  8027a6:	89 5c 24 04          	mov    %ebx,0x4(%esp)
  8027aa:	a1 00 40 81 00       	mov    0x814000,%eax
  8027af:	89 04 24             	mov    %eax,(%esp)
  8027b2:	e8 55 86 00 00       	call   80ae0c <sys_mbox_trypost>
  8027b7:	84 c0                	test   %al,%al
  8027b9:	74 15                	je     8027d0 <tcpip_input+0x68>
      memp_free(MEMP_TCPIP_MSG_INPKT, msg);
  8027bb:	89 5c 24 04          	mov    %ebx,0x4(%esp)
  8027bf:	c7 04 24 09 00 00 00 	movl   $0x9,(%esp)
  8027c6:	e8 f9 22 00 00       	call   804ac4 <memp_free>
  8027cb:	b8 ff ff ff ff       	mov    $0xffffffff,%eax
      return ERR_MEM;
    }
    return ERR_OK;
  }
  return ERR_VAL;
}
  8027d0:	83 c4 14             	add    $0x14,%esp
  8027d3:	5b                   	pop    %ebx
  8027d4:	5d                   	pop    %ebp
  8027d5:	c3                   	ret    

008027d6 <tcpip_tcp_timer>:
 *
 * @param arg unused argument
 */
static void
tcpip_tcp_timer(void *arg)
{
  8027d6:	55                   	push   %ebp
  8027d7:	89 e5                	mov    %esp,%ebp
  8027d9:	83 ec 18             	sub    $0x18,%esp
  LWIP_UNUSED_ARG(arg);

  /* call TCP timer handler */
  tcp_tmr();
  8027dc:	e8 be 41 00 00       	call   80699f <tcp_tmr>
  /* timer still needed? */
  if (tcp_active_pcbs || tcp_tw_pcbs) {
  8027e1:	83 3d 3c b2 b3 00 00 	cmpl   $0x0,0xb3b23c
  8027e8:	75 09                	jne    8027f3 <tcpip_tcp_timer+0x1d>
  8027ea:	83 3d 50 b2 b3 00 00 	cmpl   $0x0,0xb3b250
  8027f1:	74 1e                	je     802811 <tcpip_tcp_timer+0x3b>
    /* restart timer */
    sys_timeout(TCP_TMR_INTERVAL, tcpip_tcp_timer, NULL);
  8027f3:	c7 44 24 08 00 00 00 	movl   $0x0,0x8(%esp)
  8027fa:	00 
  8027fb:	c7 44 24 04 d6 27 80 	movl   $0x8027d6,0x4(%esp)
  802802:	00 
  802803:	c7 04 24 fa 00 00 00 	movl   $0xfa,(%esp)
  80280a:	e8 0b 30 00 00       	call   80581a <sys_timeout>
  LWIP_UNUSED_ARG(arg);

  /* call TCP timer handler */
  tcp_tmr();
  /* timer still needed? */
  if (tcp_active_pcbs || tcp_tw_pcbs) {
  80280f:	eb 0a                	jmp    80281b <tcpip_tcp_timer+0x45>
    /* restart timer */
    sys_timeout(TCP_TMR_INTERVAL, tcpip_tcp_timer, NULL);
  } else {
    /* disable timer */
    tcpip_tcp_timer_active = 0;
  802811:	c7 05 f4 52 81 00 00 	movl   $0x0,0x8152f4
  802818:	00 00 00 
  }
}
  80281b:	c9                   	leave  
  80281c:	c3                   	ret    
  80281d:	00 00                	add    %al,(%eax)
	...

00802820 <netbuf_first>:
 *
 * @param buf the netbuf to modify
 */
void
netbuf_first(struct netbuf *buf)
{
  802820:	55                   	push   %ebp
  802821:	89 e5                	mov    %esp,%ebp
  802823:	83 ec 18             	sub    $0x18,%esp
  802826:	8b 45 08             	mov    0x8(%ebp),%eax
  LWIP_ERROR("netbuf_free: invalid buf", (buf != NULL), return;);
  802829:	85 c0                	test   %eax,%eax
  80282b:	75 1c                	jne    802849 <netbuf_first+0x29>
  80282d:	c7 44 24 08 29 13 81 	movl   $0x811329,0x8(%esp)
  802834:	00 
  802835:	c7 44 24 04 e7 00 00 	movl   $0xe7,0x4(%esp)
  80283c:	00 
  80283d:	c7 04 24 42 13 81 00 	movl   $0x811342,(%esp)
  802844:	e8 a3 c9 00 00       	call   80f1ec <_panic>
  buf->ptr = buf->p;
  802849:	8b 10                	mov    (%eax),%edx
  80284b:	89 50 04             	mov    %edx,0x4(%eax)
}
  80284e:	c9                   	leave  
  80284f:	c3                   	ret    

00802850 <netbuf_next>:
 *         1  if moved to the next part but now there is no next part
 *         0  if moved to the next part and there are still more parts
 */
s8_t
netbuf_next(struct netbuf *buf)
{
  802850:	55                   	push   %ebp
  802851:	89 e5                	mov    %esp,%ebp
  802853:	83 ec 18             	sub    $0x18,%esp
  802856:	8b 55 08             	mov    0x8(%ebp),%edx
  LWIP_ERROR("netbuf_free: invalid buf", (buf != NULL), return -1;);
  802859:	85 d2                	test   %edx,%edx
  80285b:	75 1c                	jne    802879 <netbuf_next+0x29>
  80285d:	c7 44 24 08 29 13 81 	movl   $0x811329,0x8(%esp)
  802864:	00 
  802865:	c7 44 24 04 d2 00 00 	movl   $0xd2,0x4(%esp)
  80286c:	00 
  80286d:	c7 04 24 42 13 81 00 	movl   $0x811342,(%esp)
  802874:	e8 73 c9 00 00       	call   80f1ec <_panic>
  if (buf->ptr->next == NULL) {
  802879:	8b 42 04             	mov    0x4(%edx),%eax
  80287c:	8b 08                	mov    (%eax),%ecx
  80287e:	b8 ff ff ff ff       	mov    $0xffffffff,%eax
  802883:	85 c9                	test   %ecx,%ecx
  802885:	74 09                	je     802890 <netbuf_next+0x40>
    return -1;
  }
  buf->ptr = buf->ptr->next;
  802887:	89 4a 04             	mov    %ecx,0x4(%edx)
  80288a:	83 39 00             	cmpl   $0x0,(%ecx)
  80288d:	0f 94 c0             	sete   %al
  if (buf->ptr->next == NULL) {
    return 1;
  }
  return 0;
}
  802890:	c9                   	leave  
  802891:	c3                   	ret    

00802892 <netbuf_data>:
 * @return ERR_OK if the information was retreived,
 *         ERR_BUF on error.
 */
err_t
netbuf_data(struct netbuf *buf, void **dataptr, u16_t *len)
{
  802892:	55                   	push   %ebp
  802893:	89 e5                	mov    %esp,%ebp
  802895:	56                   	push   %esi
  802896:	53                   	push   %ebx
  802897:	83 ec 10             	sub    $0x10,%esp
  80289a:	8b 55 08             	mov    0x8(%ebp),%edx
  80289d:	8b 5d 0c             	mov    0xc(%ebp),%ebx
  8028a0:	8b 4d 10             	mov    0x10(%ebp),%ecx
  LWIP_ERROR("netbuf_data: invalid buf", (buf != NULL), return ERR_ARG;);
  8028a3:	85 d2                	test   %edx,%edx
  8028a5:	75 1c                	jne    8028c3 <netbuf_data+0x31>
  8028a7:	c7 44 24 08 58 13 81 	movl   $0x811358,0x8(%esp)
  8028ae:	00 
  8028af:	c7 44 24 04 b9 00 00 	movl   $0xb9,0x4(%esp)
  8028b6:	00 
  8028b7:	c7 04 24 42 13 81 00 	movl   $0x811342,(%esp)
  8028be:	e8 29 c9 00 00       	call   80f1ec <_panic>
  LWIP_ERROR("netbuf_data: invalid dataptr", (dataptr != NULL), return ERR_ARG;);
  8028c3:	85 db                	test   %ebx,%ebx
  8028c5:	75 1c                	jne    8028e3 <netbuf_data+0x51>
  8028c7:	c7 44 24 08 71 13 81 	movl   $0x811371,0x8(%esp)
  8028ce:	00 
  8028cf:	c7 44 24 04 ba 00 00 	movl   $0xba,0x4(%esp)
  8028d6:	00 
  8028d7:	c7 04 24 42 13 81 00 	movl   $0x811342,(%esp)
  8028de:	e8 09 c9 00 00       	call   80f1ec <_panic>
  LWIP_ERROR("netbuf_data: invalid len", (len != NULL), return ERR_ARG;);
  8028e3:	85 c9                	test   %ecx,%ecx
  8028e5:	75 1c                	jne    802903 <netbuf_data+0x71>
  8028e7:	c7 44 24 08 8e 13 81 	movl   $0x81138e,0x8(%esp)
  8028ee:	00 
  8028ef:	c7 44 24 04 bb 00 00 	movl   $0xbb,0x4(%esp)
  8028f6:	00 
  8028f7:	c7 04 24 42 13 81 00 	movl   $0x811342,(%esp)
  8028fe:	e8 e9 c8 00 00       	call   80f1ec <_panic>

  if (buf->ptr == NULL) {
  802903:	8b 72 04             	mov    0x4(%edx),%esi
  802906:	b8 fe ff ff ff       	mov    $0xfffffffe,%eax
  80290b:	85 f6                	test   %esi,%esi
  80290d:	74 14                	je     802923 <netbuf_data+0x91>
    return ERR_BUF;
  }
  *dataptr = buf->ptr->payload;
  80290f:	8b 46 04             	mov    0x4(%esi),%eax
  802912:	89 03                	mov    %eax,(%ebx)
  *len = buf->ptr->len;
  802914:	8b 42 04             	mov    0x4(%edx),%eax
  802917:	0f b7 40 0a          	movzwl 0xa(%eax),%eax
  80291b:	66 89 01             	mov    %ax,(%ecx)
  80291e:	b8 00 00 00 00       	mov    $0x0,%eax
  return ERR_OK;
}
  802923:	83 c4 10             	add    $0x10,%esp
  802926:	5b                   	pop    %ebx
  802927:	5e                   	pop    %esi
  802928:	5d                   	pop    %ebp
  802929:	c3                   	ret    

0080292a <netbuf_chain>:
 * @param head the first netbuf
 * @param tail netbuf to chain after head
 */
void
netbuf_chain(struct netbuf *head, struct netbuf *tail)
{
  80292a:	55                   	push   %ebp
  80292b:	89 e5                	mov    %esp,%ebp
  80292d:	83 ec 18             	sub    $0x18,%esp
  802930:	89 5d f8             	mov    %ebx,-0x8(%ebp)
  802933:	89 75 fc             	mov    %esi,-0x4(%ebp)
  802936:	8b 5d 08             	mov    0x8(%ebp),%ebx
  802939:	8b 75 0c             	mov    0xc(%ebp),%esi
  LWIP_ERROR("netbuf_ref: invalid head", (head != NULL), return;);
  80293c:	85 db                	test   %ebx,%ebx
  80293e:	75 1c                	jne    80295c <netbuf_chain+0x32>
  802940:	c7 44 24 08 a7 13 81 	movl   $0x8113a7,0x8(%esp)
  802947:	00 
  802948:	c7 44 24 04 a6 00 00 	movl   $0xa6,0x4(%esp)
  80294f:	00 
  802950:	c7 04 24 42 13 81 00 	movl   $0x811342,(%esp)
  802957:	e8 90 c8 00 00       	call   80f1ec <_panic>
  LWIP_ERROR("netbuf_chain: invalid tail", (tail != NULL), return;);
  80295c:	85 f6                	test   %esi,%esi
  80295e:	75 1c                	jne    80297c <netbuf_chain+0x52>
  802960:	c7 44 24 08 c0 13 81 	movl   $0x8113c0,0x8(%esp)
  802967:	00 
  802968:	c7 44 24 04 a7 00 00 	movl   $0xa7,0x4(%esp)
  80296f:	00 
  802970:	c7 04 24 42 13 81 00 	movl   $0x811342,(%esp)
  802977:	e8 70 c8 00 00       	call   80f1ec <_panic>
  pbuf_chain(head->p, tail->p);
  80297c:	8b 06                	mov    (%esi),%eax
  80297e:	89 44 24 04          	mov    %eax,0x4(%esp)
  802982:	8b 03                	mov    (%ebx),%eax
  802984:	89 04 24             	mov    %eax,(%esp)
  802987:	e8 14 25 00 00       	call   804ea0 <pbuf_chain>
  head->ptr = head->p;
  80298c:	8b 03                	mov    (%ebx),%eax
  80298e:	89 43 04             	mov    %eax,0x4(%ebx)
  memp_free(MEMP_NETBUF, tail);
  802991:	89 74 24 04          	mov    %esi,0x4(%esp)
  802995:	c7 04 24 06 00 00 00 	movl   $0x6,(%esp)
  80299c:	e8 23 21 00 00       	call   804ac4 <memp_free>
}
  8029a1:	8b 5d f8             	mov    -0x8(%ebp),%ebx
  8029a4:	8b 75 fc             	mov    -0x4(%ebp),%esi
  8029a7:	89 ec                	mov    %ebp,%esp
  8029a9:	5d                   	pop    %ebp
  8029aa:	c3                   	ret    

008029ab <netbuf_free>:
 *
 * @param buf pointer to the netbuf which contains the packet buffer to free
 */
void
netbuf_free(struct netbuf *buf)
{
  8029ab:	55                   	push   %ebp
  8029ac:	89 e5                	mov    %esp,%ebp
  8029ae:	53                   	push   %ebx
  8029af:	83 ec 14             	sub    $0x14,%esp
  8029b2:	8b 5d 08             	mov    0x8(%ebp),%ebx
  LWIP_ERROR("netbuf_free: invalid buf", (buf != NULL), return;);
  8029b5:	85 db                	test   %ebx,%ebx
  8029b7:	75 1c                	jne    8029d5 <netbuf_free+0x2a>
  8029b9:	c7 44 24 08 29 13 81 	movl   $0x811329,0x8(%esp)
  8029c0:	00 
  8029c1:	c7 44 24 04 7b 00 00 	movl   $0x7b,0x4(%esp)
  8029c8:	00 
  8029c9:	c7 04 24 42 13 81 00 	movl   $0x811342,(%esp)
  8029d0:	e8 17 c8 00 00       	call   80f1ec <_panic>
  if (buf->p != NULL) {
  8029d5:	8b 03                	mov    (%ebx),%eax
  8029d7:	85 c0                	test   %eax,%eax
  8029d9:	74 08                	je     8029e3 <netbuf_free+0x38>
    pbuf_free(buf->p);
  8029db:	89 04 24             	mov    %eax,(%esp)
  8029de:	e8 41 28 00 00       	call   805224 <pbuf_free>
  }
  buf->p = buf->ptr = NULL;
  8029e3:	c7 43 04 00 00 00 00 	movl   $0x0,0x4(%ebx)
  8029ea:	c7 03 00 00 00 00    	movl   $0x0,(%ebx)
}
  8029f0:	83 c4 14             	add    $0x14,%esp
  8029f3:	5b                   	pop    %ebx
  8029f4:	5d                   	pop    %ebp
  8029f5:	c3                   	ret    

008029f6 <netbuf_delete>:
 *
 * @param buf pointer to a netbuf allocated by netbuf_new()
 */
void
netbuf_delete(struct netbuf *buf)
{
  8029f6:	55                   	push   %ebp
  8029f7:	89 e5                	mov    %esp,%ebp
  8029f9:	53                   	push   %ebx
  8029fa:	83 ec 14             	sub    $0x14,%esp
  8029fd:	8b 5d 08             	mov    0x8(%ebp),%ebx
  if (buf != NULL) {
  802a00:	85 db                	test   %ebx,%ebx
  802a02:	74 2b                	je     802a2f <netbuf_delete+0x39>
    if (buf->p != NULL) {
  802a04:	8b 03                	mov    (%ebx),%eax
  802a06:	85 c0                	test   %eax,%eax
  802a08:	74 15                	je     802a1f <netbuf_delete+0x29>
      pbuf_free(buf->p);
  802a0a:	89 04 24             	mov    %eax,(%esp)
  802a0d:	e8 12 28 00 00       	call   805224 <pbuf_free>
      buf->p = buf->ptr = NULL;
  802a12:	c7 43 04 00 00 00 00 	movl   $0x0,0x4(%ebx)
  802a19:	c7 03 00 00 00 00    	movl   $0x0,(%ebx)
    }
    memp_free(MEMP_NETBUF, buf);
  802a1f:	89 5c 24 04          	mov    %ebx,0x4(%esp)
  802a23:	c7 04 24 06 00 00 00 	movl   $0x6,(%esp)
  802a2a:	e8 95 20 00 00       	call   804ac4 <memp_free>
  }
}
  802a2f:	83 c4 14             	add    $0x14,%esp
  802a32:	5b                   	pop    %ebx
  802a33:	5d                   	pop    %ebp
  802a34:	c3                   	ret    

00802a35 <netbuf_ref>:
 * @return ERR_OK if data is referenced
 *         ERR_MEM if data couldn't be referenced due to lack of memory
 */
err_t
netbuf_ref(struct netbuf *buf, const void *dataptr, u16_t size)
{
  802a35:	55                   	push   %ebp
  802a36:	89 e5                	mov    %esp,%ebp
  802a38:	56                   	push   %esi
  802a39:	53                   	push   %ebx
  802a3a:	83 ec 10             	sub    $0x10,%esp
  802a3d:	8b 5d 08             	mov    0x8(%ebp),%ebx
  802a40:	0f b7 75 10          	movzwl 0x10(%ebp),%esi
  LWIP_ERROR("netbuf_ref: invalid buf", (buf != NULL), return ERR_ARG;);
  802a44:	85 db                	test   %ebx,%ebx
  802a46:	75 1c                	jne    802a64 <netbuf_ref+0x2f>
  802a48:	c7 44 24 08 db 13 81 	movl   $0x8113db,0x8(%esp)
  802a4f:	00 
  802a50:	c7 44 24 04 8e 00 00 	movl   $0x8e,0x4(%esp)
  802a57:	00 
  802a58:	c7 04 24 42 13 81 00 	movl   $0x811342,(%esp)
  802a5f:	e8 88 c7 00 00       	call   80f1ec <_panic>
  if (buf->p != NULL) {
  802a64:	8b 03                	mov    (%ebx),%eax
  802a66:	85 c0                	test   %eax,%eax
  802a68:	74 08                	je     802a72 <netbuf_ref+0x3d>
    pbuf_free(buf->p);
  802a6a:	89 04 24             	mov    %eax,(%esp)
  802a6d:	e8 b2 27 00 00       	call   805224 <pbuf_free>
  }
  buf->p = pbuf_alloc(PBUF_TRANSPORT, 0, PBUF_REF);
  802a72:	c7 44 24 08 02 00 00 	movl   $0x2,0x8(%esp)
  802a79:	00 
  802a7a:	c7 44 24 04 00 00 00 	movl   $0x0,0x4(%esp)
  802a81:	00 
  802a82:	c7 04 24 00 00 00 00 	movl   $0x0,(%esp)
  802a89:	e8 51 2a 00 00       	call   8054df <pbuf_alloc>
  802a8e:	89 03                	mov    %eax,(%ebx)
  if (buf->p == NULL) {
  802a90:	85 c0                	test   %eax,%eax
  802a92:	75 0e                	jne    802aa2 <netbuf_ref+0x6d>
    buf->ptr = NULL;
  802a94:	c7 43 04 00 00 00 00 	movl   $0x0,0x4(%ebx)
  802a9b:	b8 ff ff ff ff       	mov    $0xffffffff,%eax
    return ERR_MEM;
  802aa0:	eb 1a                	jmp    802abc <netbuf_ref+0x87>
  }
  buf->p->payload = (void*)dataptr;
  802aa2:	8b 55 0c             	mov    0xc(%ebp),%edx
  802aa5:	89 50 04             	mov    %edx,0x4(%eax)
  buf->p->len = buf->p->tot_len = size;
  802aa8:	8b 03                	mov    (%ebx),%eax
  802aaa:	66 89 70 08          	mov    %si,0x8(%eax)
  802aae:	66 89 70 0a          	mov    %si,0xa(%eax)
  buf->ptr = buf->p;
  802ab2:	8b 03                	mov    (%ebx),%eax
  802ab4:	89 43 04             	mov    %eax,0x4(%ebx)
  802ab7:	b8 00 00 00 00       	mov    $0x0,%eax
  return ERR_OK;
}
  802abc:	83 c4 10             	add    $0x10,%esp
  802abf:	5b                   	pop    %ebx
  802ac0:	5e                   	pop    %esi
  802ac1:	5d                   	pop    %ebp
  802ac2:	c3                   	ret    

00802ac3 <netbuf_alloc>:
 * @return pointer to the allocated memory
 *         NULL if no memory could be allocated
 */
void *
netbuf_alloc(struct netbuf *buf, u16_t size)
{
  802ac3:	55                   	push   %ebp
  802ac4:	89 e5                	mov    %esp,%ebp
  802ac6:	56                   	push   %esi
  802ac7:	53                   	push   %ebx
  802ac8:	83 ec 10             	sub    $0x10,%esp
  802acb:	8b 5d 08             	mov    0x8(%ebp),%ebx
  802ace:	0f b7 75 0c          	movzwl 0xc(%ebp),%esi
  LWIP_ERROR("netbuf_alloc: invalid buf", (buf != NULL), return NULL;);
  802ad2:	85 db                	test   %ebx,%ebx
  802ad4:	75 1c                	jne    802af2 <netbuf_alloc+0x2f>
  802ad6:	c7 44 24 08 f3 13 81 	movl   $0x8113f3,0x8(%esp)
  802add:	00 
  802ade:	c7 44 24 04 63 00 00 	movl   $0x63,0x4(%esp)
  802ae5:	00 
  802ae6:	c7 04 24 42 13 81 00 	movl   $0x811342,(%esp)
  802aed:	e8 fa c6 00 00       	call   80f1ec <_panic>

  /* Deallocate any previously allocated memory. */
  if (buf->p != NULL) {
  802af2:	8b 03                	mov    (%ebx),%eax
  802af4:	85 c0                	test   %eax,%eax
  802af6:	74 08                	je     802b00 <netbuf_alloc+0x3d>
    pbuf_free(buf->p);
  802af8:	89 04 24             	mov    %eax,(%esp)
  802afb:	e8 24 27 00 00       	call   805224 <pbuf_free>
  }
  buf->p = pbuf_alloc(PBUF_TRANSPORT, size, PBUF_RAM);
  802b00:	c7 44 24 08 00 00 00 	movl   $0x0,0x8(%esp)
  802b07:	00 
  802b08:	0f b7 c6             	movzwl %si,%eax
  802b0b:	89 44 24 04          	mov    %eax,0x4(%esp)
  802b0f:	c7 04 24 00 00 00 00 	movl   $0x0,(%esp)
  802b16:	e8 c4 29 00 00       	call   8054df <pbuf_alloc>
  802b1b:	89 03                	mov    %eax,(%ebx)
  if (buf->p == NULL) {
  802b1d:	ba 00 00 00 00       	mov    $0x0,%edx
  802b22:	85 c0                	test   %eax,%eax
  802b24:	74 28                	je     802b4e <netbuf_alloc+0x8b>
     return NULL;
  }
  LWIP_ASSERT("check that first pbuf can hold size",
  802b26:	66 3b 70 0a          	cmp    0xa(%eax),%si
  802b2a:	76 1c                	jbe    802b48 <netbuf_alloc+0x85>
  802b2c:	c7 44 24 08 10 14 81 	movl   $0x811410,0x8(%esp)
  802b33:	00 
  802b34:	c7 44 24 04 6e 00 00 	movl   $0x6e,0x4(%esp)
  802b3b:	00 
  802b3c:	c7 04 24 42 13 81 00 	movl   $0x811342,(%esp)
  802b43:	e8 a4 c6 00 00       	call   80f1ec <_panic>
             (buf->p->len >= size));
  buf->ptr = buf->p;
  802b48:	89 43 04             	mov    %eax,0x4(%ebx)
  return buf->p->payload;
  802b4b:	8b 50 04             	mov    0x4(%eax),%edx
}
  802b4e:	89 d0                	mov    %edx,%eax
  802b50:	83 c4 10             	add    $0x10,%esp
  802b53:	5b                   	pop    %ebx
  802b54:	5e                   	pop    %esi
  802b55:	5d                   	pop    %ebp
  802b56:	c3                   	ret    

00802b57 <netbuf_new>:
 * @return a pointer to a new netbuf
 *         NULL on lack of memory
 */
struct
netbuf *netbuf_new(void)
{
  802b57:	55                   	push   %ebp
  802b58:	89 e5                	mov    %esp,%ebp
  802b5a:	83 ec 18             	sub    $0x18,%esp
  struct netbuf *buf;

  buf = memp_malloc(MEMP_NETBUF);
  802b5d:	c7 04 24 06 00 00 00 	movl   $0x6,(%esp)
  802b64:	e8 9f 1f 00 00       	call   804b08 <memp_malloc>
  if (buf != NULL) {
  802b69:	85 c0                	test   %eax,%eax
  802b6b:	74 14                	je     802b81 <netbuf_new+0x2a>
    buf->p = NULL;
  802b6d:	c7 00 00 00 00 00    	movl   $0x0,(%eax)
    buf->ptr = NULL;
  802b73:	c7 40 04 00 00 00 00 	movl   $0x0,0x4(%eax)
    buf->addr = NULL;
  802b7a:	c7 40 08 00 00 00 00 	movl   $0x0,0x8(%eax)
    return buf;
  } else {
    return NULL;
  }
}
  802b81:	c9                   	leave  
  802b82:	c3                   	ret    
	...

00802b90 <lwip_init>:
/**
 * Perform Sanity check of user-configurable values, and initialize all modules.
 */
void
lwip_init(void)
{
  802b90:	55                   	push   %ebp
  802b91:	89 e5                	mov    %esp,%ebp
  802b93:	83 ec 08             	sub    $0x8,%esp
  /* Sanity check user-configurable values */
  lwip_sanity_check();

  /* Modules initialization */
  stats_init();
  sys_init();
  802b96:	e8 35 7a 00 00       	call   80a5d0 <sys_init>
  mem_init();
  802b9b:	e8 65 1e 00 00       	call   804a05 <mem_init>
  memp_init();
  802ba0:	e8 bf 1e 00 00       	call   804a64 <memp_init>
  pbuf_init();
  netif_init();
#if LWIP_SOCKET
  lwip_socket_init();
  802ba5:	e8 78 e9 ff ff       	call   801522 <lwip_socket_init>
  igmp_init();
#endif /* LWIP_IGMP */
#if LWIP_DNS
  dns_init();
#endif /* LWIP_DNS */
}
  802baa:	c9                   	leave  
  802bab:	c3                   	ret    
  802bac:	00 00                	add    %al,(%eax)
	...

00802bb0 <dhcp_set_state>:
 *
 * TODO: we might also want to reset the timeout here?
 */
static void
dhcp_set_state(struct dhcp *dhcp, u8_t new_state)
{
  802bb0:	55                   	push   %ebp
  802bb1:	89 e5                	mov    %esp,%ebp
  if (new_state != dhcp->state) {
  802bb3:	38 10                	cmp    %dl,(%eax)
  802bb5:	74 06                	je     802bbd <dhcp_set_state+0xd>
    dhcp->state = new_state;
  802bb7:	88 10                	mov    %dl,(%eax)
    dhcp->tries = 0;
  802bb9:	c6 40 01 00          	movb   $0x0,0x1(%eax)
  }
}
  802bbd:	5d                   	pop    %ebp
  802bbe:	c3                   	ret    

00802bbf <dhcp_get_option_ptr>:
 *
 * @return a byte offset into the UDP message where the option was found, or
 * zero if the given option was not found.
 */
static u8_t *dhcp_get_option_ptr(struct dhcp *dhcp, u8_t option_type)
{
  802bbf:	55                   	push   %ebp
  802bc0:	89 e5                	mov    %esp,%ebp
  802bc2:	57                   	push   %edi
  802bc3:	56                   	push   %esi
  802bc4:	53                   	push   %ebx
  802bc5:	83 ec 08             	sub    $0x8,%esp
  802bc8:	88 55 f3             	mov    %dl,-0xd(%ebp)
  u8_t overload = DHCP_OVERLOAD_NONE;

  /* options available? */
  if ((dhcp->options_in != NULL) && (dhcp->options_in_len > 0)) {
  802bcb:	8b 70 14             	mov    0x14(%eax),%esi
  802bce:	85 f6                	test   %esi,%esi
  802bd0:	0f 84 c8 00 00 00    	je     802c9e <dhcp_get_option_ptr+0xdf>
  802bd6:	0f b7 78 18          	movzwl 0x18(%eax),%edi
  802bda:	66 85 ff             	test   %di,%di
  802bdd:	0f 84 bb 00 00 00    	je     802c9e <dhcp_get_option_ptr+0xdf>
    /* start with options field */
    u8_t *options = (u8_t *)dhcp->options_in;
  802be3:	ba 00 00 00 00       	mov    $0x0,%edx
  802be8:	c6 45 f2 00          	movb   $0x0,-0xe(%ebp)
    u16_t offset = 0;
    /* at least 1 byte to read and no end marker, then at least 3 bytes to read? */
    while ((offset < dhcp->options_in_len) && (options[offset] != DHCP_OPTION_END)) {
  802bec:	eb 2e                	jmp    802c1c <dhcp_get_option_ptr+0x5d>
      /* LWIP_DEBUGF(DHCP_DEBUG, ("msg_offset=%"U16_F", q->len=%"U16_F, msg_offset, q->len)); */
      /* are the sname and/or file field overloaded with options? */
      if (options[offset] == DHCP_OPTION_OVERLOAD) {
  802bee:	80 f9 34             	cmp    $0x34,%cl
  802bf1:	75 12                	jne    802c05 <dhcp_get_option_ptr+0x46>
        LWIP_DEBUGF(DHCP_DEBUG | LWIP_DBG_TRACE | 2, ("overloaded message detected\n"));
        /* skip option type and length */
        offset += 2;
  802bf3:	8d 4a 02             	lea    0x2(%edx),%ecx
        overload = options[offset++];
  802bf6:	0f b7 c9             	movzwl %cx,%ecx
  802bf9:	0f b6 0c 0e          	movzbl (%esi,%ecx,1),%ecx
  802bfd:	88 4d f2             	mov    %cl,-0xe(%ebp)
  802c00:	83 c2 03             	add    $0x3,%edx
  802c03:	eb 17                	jmp    802c1c <dhcp_get_option_ptr+0x5d>
      }
      /* requested option found */
      else if (options[offset] == option_type) {
  802c05:	3a 4d f3             	cmp    -0xd(%ebp),%cl
  802c08:	0f 84 95 00 00 00    	je     802ca3 <dhcp_get_option_ptr+0xe4>
        return &options[offset];
      /* skip option */
      } else {
         LWIP_DEBUGF(DHCP_DEBUG, ("skipping option %"U16_F" in options\n", options[offset]));
        /* skip option type */
        offset++;
  802c0e:	8d 4a 01             	lea    0x1(%edx),%ecx
        /* skip option length, and then length bytes */
        offset += 1 + options[offset];
  802c11:	0f b7 c9             	movzwl %cx,%ecx
  802c14:	0f b6 0c 0e          	movzbl (%esi,%ecx,1),%ecx
  802c18:	8d 54 0a 02          	lea    0x2(%edx,%ecx,1),%edx
  if ((dhcp->options_in != NULL) && (dhcp->options_in_len > 0)) {
    /* start with options field */
    u8_t *options = (u8_t *)dhcp->options_in;
    u16_t offset = 0;
    /* at least 1 byte to read and no end marker, then at least 3 bytes to read? */
    while ((offset < dhcp->options_in_len) && (options[offset] != DHCP_OPTION_END)) {
  802c1c:	66 39 fa             	cmp    %di,%dx
  802c1f:	73 0e                	jae    802c2f <dhcp_get_option_ptr+0x70>
  802c21:	0f b7 da             	movzwl %dx,%ebx
  802c24:	8d 1c 1e             	lea    (%esi,%ebx,1),%ebx
  802c27:	0f b6 0b             	movzbl (%ebx),%ecx
  802c2a:	80 f9 ff             	cmp    $0xff,%cl
  802c2d:	75 bf                	jne    802bee <dhcp_get_option_ptr+0x2f>
        /* skip option length, and then length bytes */
        offset += 1 + options[offset];
      }
    }
    /* is this an overloaded message? */
    if (overload != DHCP_OVERLOAD_NONE) {
  802c2f:	80 7d f2 00          	cmpb   $0x0,-0xe(%ebp)
  802c33:	74 69                	je     802c9e <dhcp_get_option_ptr+0xdf>
      u16_t field_len;
      if (overload == DHCP_OVERLOAD_FILE) {
  802c35:	80 7d f2 01          	cmpb   $0x1,-0xe(%ebp)
  802c39:	75 0d                	jne    802c48 <dhcp_get_option_ptr+0x89>
        LWIP_DEBUGF(DHCP_DEBUG | LWIP_DBG_TRACE | 1, ("overloaded file field\n"));
        options = (u8_t *)&dhcp->msg_in->file;
  802c3b:	8b 48 10             	mov    0x10(%eax),%ecx
  802c3e:	83 c1 6c             	add    $0x6c,%ecx
  802c41:	be 80 00 00 00       	mov    $0x80,%esi
  802c46:	eb 1e                	jmp    802c66 <dhcp_get_option_ptr+0xa7>
        field_len = DHCP_FILE_LEN;
      } else if (overload == DHCP_OVERLOAD_SNAME) {
  802c48:	80 7d f2 02          	cmpb   $0x2,-0xe(%ebp)
  802c4c:	75 0d                	jne    802c5b <dhcp_get_option_ptr+0x9c>
        LWIP_DEBUGF(DHCP_DEBUG | LWIP_DBG_TRACE | 1, ("overloaded sname field\n"));
        options = (u8_t *)&dhcp->msg_in->sname;
  802c4e:	8b 48 10             	mov    0x10(%eax),%ecx
  802c51:	83 c1 2c             	add    $0x2c,%ecx
  802c54:	be 40 00 00 00       	mov    $0x40,%esi
  802c59:	eb 0b                	jmp    802c66 <dhcp_get_option_ptr+0xa7>
        field_len = DHCP_SNAME_LEN;
      /* TODO: check if else if () is necessary */
      } else {
        LWIP_DEBUGF(DHCP_DEBUG | LWIP_DBG_TRACE | 1, ("overloaded sname and file field\n"));
        options = (u8_t *)&dhcp->msg_in->sname;
  802c5b:	8b 48 10             	mov    0x10(%eax),%ecx
  802c5e:	83 c1 2c             	add    $0x2c,%ecx
  802c61:	be c0 00 00 00       	mov    $0xc0,%esi
  802c66:	b8 00 00 00 00       	mov    $0x0,%eax
  802c6b:	89 4d ec             	mov    %ecx,-0x14(%ebp)
  802c6e:	0f b6 7d f3          	movzbl -0xd(%ebp),%edi
        field_len = DHCP_FILE_LEN + DHCP_SNAME_LEN;
      }
      offset = 0;

      /* at least 1 byte to read and no end marker */
      while ((offset < field_len) && (options[offset] != DHCP_OPTION_END)) {
  802c72:	eb 17                	jmp    802c8b <dhcp_get_option_ptr+0xcc>
        if (options[offset] == option_type) {
  802c74:	89 f9                	mov    %edi,%ecx
  802c76:	38 d1                	cmp    %dl,%cl
  802c78:	74 29                	je     802ca3 <dhcp_get_option_ptr+0xe4>
          return &options[offset];
        /* skip option */
        } else {
          LWIP_DEBUGF(DHCP_DEBUG | LWIP_DBG_TRACE, ("skipping option %"U16_F"\n", options[offset]));
          /* skip option type */
          offset++;
  802c7a:	8d 50 01             	lea    0x1(%eax),%edx
          offset += 1 + options[offset];
  802c7d:	0f b7 d2             	movzwl %dx,%edx
  802c80:	8b 4d ec             	mov    -0x14(%ebp),%ecx
  802c83:	0f b6 14 11          	movzbl (%ecx,%edx,1),%edx
  802c87:	8d 44 02 02          	lea    0x2(%edx,%eax,1),%eax
        field_len = DHCP_FILE_LEN + DHCP_SNAME_LEN;
      }
      offset = 0;

      /* at least 1 byte to read and no end marker */
      while ((offset < field_len) && (options[offset] != DHCP_OPTION_END)) {
  802c8b:	66 39 f0             	cmp    %si,%ax
  802c8e:	73 0e                	jae    802c9e <dhcp_get_option_ptr+0xdf>
  802c90:	0f b7 d8             	movzwl %ax,%ebx
  802c93:	03 5d ec             	add    -0x14(%ebp),%ebx
  802c96:	0f b6 13             	movzbl (%ebx),%edx
  802c99:	80 fa ff             	cmp    $0xff,%dl
  802c9c:	75 d6                	jne    802c74 <dhcp_get_option_ptr+0xb5>
  802c9e:	bb 00 00 00 00       	mov    $0x0,%ebx
        }
      }
    }
  }
  return NULL;
}
  802ca3:	89 d8                	mov    %ebx,%eax
  802ca5:	83 c4 08             	add    $0x8,%esp
  802ca8:	5b                   	pop    %ebx
  802ca9:	5e                   	pop    %esi
  802caa:	5f                   	pop    %edi
  802cab:	5d                   	pop    %ebp
  802cac:	c3                   	ret    

00802cad <dhcp_get_option_byte>:
 *
 * @return byte value at the given address.
 */
static u8_t
dhcp_get_option_byte(u8_t *ptr)
{
  802cad:	55                   	push   %ebp
  802cae:	89 e5                	mov    %esp,%ebp
  802cb0:	0f b6 00             	movzbl (%eax),%eax
  LWIP_DEBUGF(DHCP_DEBUG, ("option byte value=%"U16_F"\n", (u16_t)(*ptr)));
  return *ptr;
}
  802cb3:	5d                   	pop    %ebp
  802cb4:	c3                   	ret    

00802cb5 <dhcp_get_option_long>:
 * @param ptr pointer obtained by dhcp_get_option_ptr().
 *
 * @return byte value at the given address.
 */
static u32_t dhcp_get_option_long(u8_t *ptr)
{
  802cb5:	55                   	push   %ebp
  802cb6:	89 e5                	mov    %esp,%ebp
  802cb8:	53                   	push   %ebx
  u32_t value;
  value = (u32_t)(*ptr++) << 24;
  802cb9:	0f b6 10             	movzbl (%eax),%edx
  802cbc:	c1 e2 18             	shl    $0x18,%edx
  value |= (u32_t)(*ptr++) << 16;
  802cbf:	0f b6 58 01          	movzbl 0x1(%eax),%ebx
  802cc3:	c1 e3 10             	shl    $0x10,%ebx
  802cc6:	09 d3                	or     %edx,%ebx
  802cc8:	8d 50 02             	lea    0x2(%eax),%edx
  value |= (u32_t)(*ptr++) << 8;
  802ccb:	0f b6 0a             	movzbl (%edx),%ecx
  802cce:	c1 e1 08             	shl    $0x8,%ecx
  802cd1:	89 d8                	mov    %ebx,%eax
  802cd3:	09 c8                	or     %ecx,%eax
  802cd5:	0f b6 52 01          	movzbl 0x1(%edx),%edx
  802cd9:	09 d0                	or     %edx,%eax
  value |= (u32_t)(*ptr++);
  LWIP_DEBUGF(DHCP_DEBUG, ("option long value=%"U32_F"\n", value));
  return value;
}
  802cdb:	5b                   	pop    %ebx
  802cdc:	5d                   	pop    %ebp
  802cdd:	c3                   	ret    

00802cde <dhcp_option>:
 * DHCP message.
 *
 */
static void
dhcp_option(struct dhcp *dhcp, u8_t option_type, u8_t option_len)
{
  802cde:	55                   	push   %ebp
  802cdf:	89 e5                	mov    %esp,%ebp
  802ce1:	83 ec 28             	sub    $0x28,%esp
  802ce4:	89 5d f4             	mov    %ebx,-0xc(%ebp)
  802ce7:	89 75 f8             	mov    %esi,-0x8(%ebp)
  802cea:	89 7d fc             	mov    %edi,-0x4(%ebp)
  LWIP_ASSERT("dhcp_option: dhcp->options_out_len + 2 + option_len <= DHCP_OPTIONS_LEN", dhcp->options_out_len + 2U + option_len <= DHCP_OPTIONS_LEN);
  802ced:	0f b7 58 24          	movzwl 0x24(%eax),%ebx
  802cf1:	0f b7 fb             	movzwl %bx,%edi
  802cf4:	0f b6 f1             	movzbl %cl,%esi
  802cf7:	8d 74 37 02          	lea    0x2(%edi,%esi,1),%esi
  802cfb:	83 fe 44             	cmp    $0x44,%esi
  802cfe:	76 1c                	jbe    802d1c <dhcp_option+0x3e>
  802d00:	c7 44 24 08 34 14 81 	movl   $0x811434,0x8(%esp)
  802d07:	00 
  802d08:	c7 44 24 04 5a 04 00 	movl   $0x45a,0x4(%esp)
  802d0f:	00 
  802d10:	c7 04 24 82 17 81 00 	movl   $0x811782,(%esp)
  802d17:	e8 d0 c4 00 00       	call   80f1ec <_panic>
  dhcp->msg_out->options[dhcp->options_out_len++] = option_type;
  802d1c:	8b 78 20             	mov    0x20(%eax),%edi
  802d1f:	0f b7 f3             	movzwl %bx,%esi
  802d22:	88 94 37 f0 00 00 00 	mov    %dl,0xf0(%edi,%esi,1)
  802d29:	8d 53 01             	lea    0x1(%ebx),%edx
  dhcp->msg_out->options[dhcp->options_out_len++] = option_len;
  802d2c:	8b 70 20             	mov    0x20(%eax),%esi
  802d2f:	0f b7 d2             	movzwl %dx,%edx
  802d32:	88 8c 16 f0 00 00 00 	mov    %cl,0xf0(%esi,%edx,1)
  802d39:	83 c3 02             	add    $0x2,%ebx
  802d3c:	66 89 58 24          	mov    %bx,0x24(%eax)
}
  802d40:	8b 5d f4             	mov    -0xc(%ebp),%ebx
  802d43:	8b 75 f8             	mov    -0x8(%ebp),%esi
  802d46:	8b 7d fc             	mov    -0x4(%ebp),%edi
  802d49:	89 ec                	mov    %ebp,%esp
  802d4b:	5d                   	pop    %ebp
  802d4c:	c3                   	ret    

00802d4d <dhcp_option_byte>:
 * Concatenate a single byte to the outgoing DHCP message.
 *
 */
static void
dhcp_option_byte(struct dhcp *dhcp, u8_t value)
{
  802d4d:	55                   	push   %ebp
  802d4e:	89 e5                	mov    %esp,%ebp
  802d50:	83 ec 18             	sub    $0x18,%esp
  802d53:	89 5d f8             	mov    %ebx,-0x8(%ebp)
  802d56:	89 75 fc             	mov    %esi,-0x4(%ebp)
  LWIP_ASSERT("dhcp_option_byte: dhcp->options_out_len < DHCP_OPTIONS_LEN", dhcp->options_out_len < DHCP_OPTIONS_LEN);
  802d59:	0f b7 48 24          	movzwl 0x24(%eax),%ecx
  802d5d:	66 83 f9 43          	cmp    $0x43,%cx
  802d61:	76 1c                	jbe    802d7f <dhcp_option_byte+0x32>
  802d63:	c7 44 24 08 7c 14 81 	movl   $0x81147c,0x8(%esp)
  802d6a:	00 
  802d6b:	c7 44 24 04 65 04 00 	movl   $0x465,0x4(%esp)
  802d72:	00 
  802d73:	c7 04 24 82 17 81 00 	movl   $0x811782,(%esp)
  802d7a:	e8 6d c4 00 00       	call   80f1ec <_panic>
  dhcp->msg_out->options[dhcp->options_out_len++] = value;
  802d7f:	8b 70 20             	mov    0x20(%eax),%esi
  802d82:	0f b7 d9             	movzwl %cx,%ebx
  802d85:	88 94 1e f0 00 00 00 	mov    %dl,0xf0(%esi,%ebx,1)
  802d8c:	83 c1 01             	add    $0x1,%ecx
  802d8f:	66 89 48 24          	mov    %cx,0x24(%eax)
}
  802d93:	8b 5d f8             	mov    -0x8(%ebp),%ebx
  802d96:	8b 75 fc             	mov    -0x4(%ebp),%esi
  802d99:	89 ec                	mov    %ebp,%esp
  802d9b:	5d                   	pop    %ebp
  802d9c:	c3                   	ret    

00802d9d <dhcp_option_trailer>:
 *
 * @param dhcp DHCP state structure
 */
static void
dhcp_option_trailer(struct dhcp *dhcp)
{
  802d9d:	55                   	push   %ebp
  802d9e:	89 e5                	mov    %esp,%ebp
  802da0:	53                   	push   %ebx
  802da1:	83 ec 14             	sub    $0x14,%esp
  LWIP_ERROR("dhcp_option_trailer: dhcp != NULL", (dhcp != NULL), return;);
  802da4:	85 c0                	test   %eax,%eax
  802da6:	75 1c                	jne    802dc4 <dhcp_option_trailer+0x27>
  802da8:	c7 44 24 08 b8 14 81 	movl   $0x8114b8,0x8(%esp)
  802daf:	00 
  802db0:	c7 44 24 04 80 05 00 	movl   $0x580,0x4(%esp)
  802db7:	00 
  802db8:	c7 04 24 82 17 81 00 	movl   $0x811782,(%esp)
  802dbf:	e8 28 c4 00 00       	call   80f1ec <_panic>
  LWIP_ASSERT("dhcp_option_trailer: dhcp->msg_out != NULL\n", dhcp->msg_out != NULL);
  802dc4:	8b 48 20             	mov    0x20(%eax),%ecx
  802dc7:	85 c9                	test   %ecx,%ecx
  802dc9:	75 1c                	jne    802de7 <dhcp_option_trailer+0x4a>
  802dcb:	c7 44 24 08 dc 14 81 	movl   $0x8114dc,0x8(%esp)
  802dd2:	00 
  802dd3:	c7 44 24 04 81 05 00 	movl   $0x581,0x4(%esp)
  802dda:	00 
  802ddb:	c7 04 24 82 17 81 00 	movl   $0x811782,(%esp)
  802de2:	e8 05 c4 00 00       	call   80f1ec <_panic>
  LWIP_ASSERT("dhcp_option_trailer: dhcp->options_out_len < DHCP_OPTIONS_LEN\n", dhcp->options_out_len < DHCP_OPTIONS_LEN);
  802de7:	0f b7 50 24          	movzwl 0x24(%eax),%edx
  802deb:	66 83 fa 43          	cmp    $0x43,%dx
  802def:	76 1c                	jbe    802e0d <dhcp_option_trailer+0x70>
  802df1:	c7 44 24 08 08 15 81 	movl   $0x811508,0x8(%esp)
  802df8:	00 
  802df9:	c7 44 24 04 82 05 00 	movl   $0x582,0x4(%esp)
  802e00:	00 
  802e01:	c7 04 24 82 17 81 00 	movl   $0x811782,(%esp)
  802e08:	e8 df c3 00 00       	call   80f1ec <_panic>
  dhcp->msg_out->options[dhcp->options_out_len++] = DHCP_OPTION_END;
  802e0d:	0f b7 da             	movzwl %dx,%ebx
  802e10:	c6 84 19 f0 00 00 00 	movb   $0xff,0xf0(%ecx,%ebx,1)
  802e17:	ff 
  802e18:	83 c2 01             	add    $0x1,%edx
  802e1b:	66 89 50 24          	mov    %dx,0x24(%eax)
  /* packet is too small, or not 4 byte aligned? */
  while ((dhcp->options_out_len < DHCP_MIN_OPTIONS_LEN) || (dhcp->options_out_len & 3)) {
  802e1f:	eb 31                	jmp    802e52 <dhcp_option_trailer+0xb5>
    /* LWIP_DEBUGF(DHCP_DEBUG,("dhcp_option_trailer:dhcp->options_out_len=%"U16_F", DHCP_OPTIONS_LEN=%"U16_F, dhcp->options_out_len, DHCP_OPTIONS_LEN)); */
    LWIP_ASSERT("dhcp_option_trailer: dhcp->options_out_len < DHCP_OPTIONS_LEN\n", dhcp->options_out_len < DHCP_OPTIONS_LEN);
  802e21:	c7 44 24 08 08 15 81 	movl   $0x811508,0x8(%esp)
  802e28:	00 
  802e29:	c7 44 24 04 87 05 00 	movl   $0x587,0x4(%esp)
  802e30:	00 
  802e31:	c7 04 24 82 17 81 00 	movl   $0x811782,(%esp)
  802e38:	e8 af c3 00 00       	call   80f1ec <_panic>
    /* add a fill/padding byte */
    dhcp->msg_out->options[dhcp->options_out_len++] = 0;
  802e3d:	8b 58 20             	mov    0x20(%eax),%ebx
  802e40:	0f b7 ca             	movzwl %dx,%ecx
  802e43:	c6 84 0b f0 00 00 00 	movb   $0x0,0xf0(%ebx,%ecx,1)
  802e4a:	00 
  802e4b:	83 c2 01             	add    $0x1,%edx
  802e4e:	66 89 50 24          	mov    %dx,0x24(%eax)
  LWIP_ERROR("dhcp_option_trailer: dhcp != NULL", (dhcp != NULL), return;);
  LWIP_ASSERT("dhcp_option_trailer: dhcp->msg_out != NULL\n", dhcp->msg_out != NULL);
  LWIP_ASSERT("dhcp_option_trailer: dhcp->options_out_len < DHCP_OPTIONS_LEN\n", dhcp->options_out_len < DHCP_OPTIONS_LEN);
  dhcp->msg_out->options[dhcp->options_out_len++] = DHCP_OPTION_END;
  /* packet is too small, or not 4 byte aligned? */
  while ((dhcp->options_out_len < DHCP_MIN_OPTIONS_LEN) || (dhcp->options_out_len & 3)) {
  802e52:	0f b7 50 24          	movzwl 0x24(%eax),%edx
  802e56:	66 83 fa 43          	cmp    $0x43,%dx
  802e5a:	76 e1                	jbe    802e3d <dhcp_option_trailer+0xa0>
  802e5c:	f6 c2 03             	test   $0x3,%dl
  802e5f:	75 c0                	jne    802e21 <dhcp_option_trailer+0x84>
    /* LWIP_DEBUGF(DHCP_DEBUG,("dhcp_option_trailer:dhcp->options_out_len=%"U16_F", DHCP_OPTIONS_LEN=%"U16_F, dhcp->options_out_len, DHCP_OPTIONS_LEN)); */
    LWIP_ASSERT("dhcp_option_trailer: dhcp->options_out_len < DHCP_OPTIONS_LEN\n", dhcp->options_out_len < DHCP_OPTIONS_LEN);
    /* add a fill/padding byte */
    dhcp->msg_out->options[dhcp->options_out_len++] = 0;
  }
}
  802e61:	83 c4 14             	add    $0x14,%esp
  802e64:	5b                   	pop    %ebx
  802e65:	5d                   	pop    %ebp
  802e66:	c3                   	ret    

00802e67 <dhcp_option_short>:
  dhcp->msg_out->options[dhcp->options_out_len++] = value;
}

static void
dhcp_option_short(struct dhcp *dhcp, u16_t value)
{
  802e67:	55                   	push   %ebp
  802e68:	89 e5                	mov    %esp,%ebp
  802e6a:	83 ec 48             	sub    $0x48,%esp
  802e6d:	89 5d f4             	mov    %ebx,-0xc(%ebp)
  802e70:	89 75 f8             	mov    %esi,-0x8(%ebp)
  802e73:	89 7d fc             	mov    %edi,-0x4(%ebp)
  LWIP_ASSERT("dhcp_option_short: dhcp->options_out_len + 2 <= DHCP_OPTIONS_LEN", dhcp->options_out_len + 2U <= DHCP_OPTIONS_LEN);
  802e76:	0f b7 48 24          	movzwl 0x24(%eax),%ecx
  802e7a:	0f b7 d9             	movzwl %cx,%ebx
  802e7d:	83 c3 02             	add    $0x2,%ebx
  802e80:	83 fb 44             	cmp    $0x44,%ebx
  802e83:	76 1c                	jbe    802ea1 <dhcp_option_short+0x3a>
  802e85:	c7 44 24 08 48 15 81 	movl   $0x811548,0x8(%esp)
  802e8c:	00 
  802e8d:	c7 44 24 04 6c 04 00 	movl   $0x46c,0x4(%esp)
  802e94:	00 
  802e95:	c7 04 24 82 17 81 00 	movl   $0x811782,(%esp)
  802e9c:	e8 4b c3 00 00       	call   80f1ec <_panic>
  dhcp->msg_out->options[dhcp->options_out_len++] = (u8_t)((value & 0xff00U) >> 8);
  802ea1:	0f b7 d9             	movzwl %cx,%ebx
  802ea4:	89 5d e4             	mov    %ebx,-0x1c(%ebp)
